---
triple:          'arm64-apple-darwin'
binary-path:     a.out
relocations:
  - { offset: 0x33529, size: 0x8, addend: 0x0, symName: __ZN6fuzzer18MutationDispatcher9CrossOverEPKhmS2_mPhm, symObjAddr: 0x0, symBinAddr: 0x10006109C, symSize: 0x1A0 }
  - { offset: 0x3CB1E, size: 0x8, addend: 0x0, symName: __ZN6fuzzer18MutationDispatcher9CrossOverEPKhmS2_mPhm, symObjAddr: 0x0, symBinAddr: 0x10006109C, symSize: 0x1A0 }
  - { offset: 0x3CE3E, size: 0x8, addend: 0x0, symName: __ZN6fuzzer13BlockCoverage14AppendCoverageERKNSt3__112basic_stringIcNS1_11char_traitsIcEENS1_9allocatorIcEEEE, symObjAddr: 0x0, symBinAddr: 0x10006123C, symSize: 0x12C }
  - { offset: 0x3CE67, size: 0x8, addend: 0x0, symName: __ZN6fuzzer15CollectDataFlowERKNSt3__112basic_stringIcNS0_11char_traitsIcEENS0_9allocatorIcEEEES8_RKNS0_6vectorINS_9SizedFileENS4_ISA_EEEE, symObjAddr: 0x22D0, symBinAddr: 0x10006350C, symSize: 0x4D8 }
  - { offset: 0x3CE92, size: 0x8, addend: 0x0, symName: __ZZN6fuzzer15CollectDataFlowERKNSt3__112basic_stringIcNS0_11char_traitsIcEENS0_9allocatorIcEEEES8_RKNS0_6vectorINS_9SizedFileENS4_ISA_EEEEE8DFSanEnv, symObjAddr: 0x7C20, symBinAddr: 0x1000AC0E8, symSize: 0x0 }
  - { offset: 0x3EF58, size: 0x8, addend: 0x0, symName: __ZNK6fuzzer7Command8toStringEv, symObjAddr: 0x27A8, symBinAddr: 0x1000639E4, symSize: 0x2B8 }
  - { offset: 0x3F62F, size: 0x8, addend: 0x0, symName: __ZNSt3__1L19piecewise_constructE, symObjAddr: 0x812E, symBinAddr: 0x100098166, symSize: 0x0 }
  - { offset: 0x4F70E, size: 0x8, addend: 0x0, symName: __ZNSt3__124__put_character_sequenceB7v160000IcNS_11char_traitsIcEEEERNS_13basic_ostreamIT_T0_EES7_PKS4_m, symObjAddr: 0x43A0, symBinAddr: 0x1000655DC, symSize: 0x110 }
  - { offset: 0x6154F, size: 0x8, addend: 0x0, symName: __ZNSt3__17getlineB7v160000IcNS_11char_traitsIcEENS_9allocatorIcEEEERNS_13basic_istreamIT_T0_EES9_RNS_12basic_stringIS6_S7_T1_EES6_, symObjAddr: 0x858, symBinAddr: 0x100061A94, symSize: 0x12C }
  - { offset: 0x644CE, size: 0x8, addend: 0x0, symName: __ZNSt3__116__throw_bad_castB7v160000Ev, symObjAddr: 0x3E7C, symBinAddr: 0x1000650B8, symSize: 0xC }
  - { offset: 0x644ED, size: 0x8, addend: 0x0, symName: __ZSt28__throw_bad_array_new_lengthB7v160000v, symObjAddr: 0x3E88, symBinAddr: 0x1000650C4, symSize: 0xC }
  - { offset: 0x651BA, size: 0x8, addend: 0x0, symName: __ZNSt3__116__pad_and_outputB7v160000IcNS_11char_traitsIcEEEENS_19ostreambuf_iteratorIT_T0_EES6_PKS4_S8_S8_RNS_8ios_baseES4_, symObjAddr: 0x44B0, symBinAddr: 0x1000656EC, symSize: 0x204 }
  - { offset: 0x657D9, size: 0x8, addend: 0x0, symName: __ZNKSt3__115basic_stringbufIcNS_11char_traitsIcEENS_9allocatorIcEEE3strEv, symObjAddr: 0x46B4, symBinAddr: 0x1000658F0, symSize: 0x234 }
  - { offset: 0x68AD1, size: 0x8, addend: 0x0, symName: __ZSt28__throw_bad_array_new_lengthB7v160000v, symObjAddr: 0x3E88, symBinAddr: 0x1000650C4, symSize: 0xC }
  - { offset: 0x68AEF, size: 0x8, addend: 0x0, symName: __ZNSt3__16vectorINS_12basic_stringIcNS_11char_traitsIcEENS_9allocatorIcEEEENS4_IS6_EEE6insertENS_11__wrap_iterIPKS6_EERSA_, symObjAddr: 0x3E94, symBinAddr: 0x1000650D0, symSize: 0x2FC }
  - { offset: 0x6D10D, size: 0x8, addend: 0x0, symName: __ZN6fuzzer13BlockCoverage14AppendCoverageERKNSt3__112basic_stringIcNS1_11char_traitsIcEENS1_9allocatorIcEEEE, symObjAddr: 0x0, symBinAddr: 0x10006123C, symSize: 0x12C }
  - { offset: 0x6D40F, size: 0x8, addend: 0x0, symName: __ZNSt3__115basic_stringbufIcNS_11char_traitsIcEENS_9allocatorIcEEE3strERKNS_12basic_stringIcS2_S4_EE, symObjAddr: 0x48E8, symBinAddr: 0x100065B24, symSize: 0x130 }
  - { offset: 0x6D6BF, size: 0x8, addend: 0x0, symName: __ZN6fuzzer13BlockCoverage14AppendCoverageERNSt3__113basic_istreamIcNS1_11char_traitsIcEEEE, symObjAddr: 0x12C, symBinAddr: 0x100061368, symSize: 0x698 }
  - { offset: 0x6EDFD, size: 0x8, addend: 0x0, symName: __ZNSt3__118basic_stringstreamIcNS_11char_traitsIcEENS_9allocatorIcEEED1Ev, symObjAddr: 0x7C4, symBinAddr: 0x100061A00, symSize: 0x94 }
  - { offset: 0x6FA7F, size: 0x8, addend: 0x0, symName: __ZNSt3__112__hash_tableImNS_4hashImEENS_8equal_toImEENS_9allocatorImEEE25__emplace_unique_key_argsImJRKmEEENS_4pairINS_15__hash_iteratorIPNS_11__hash_nodeImPvEEEEbEERKT_DpOT0_, symObjAddr: 0x4A18, symBinAddr: 0x100065C54, symSize: 0x314 }
  - { offset: 0x6FFA0, size: 0x8, addend: 0x0, symName: __ZNSt3__112__hash_tableINS_17__hash_value_typeImNS_6vectorIjNS_9allocatorIjEEEEEENS_22__unordered_map_hasherImS6_NS_4hashImEENS_8equal_toImEELb1EEENS_21__unordered_map_equalImS6_SB_S9_Lb1EEENS3_IS6_EEE25__emplace_unique_key_argsImJNS_4pairIKmS5_EEEEENSI_INS_15__hash_iteratorIPNS_11__hash_nodeIS6_PvEEEEbEERKT_DpOT0_, symObjAddr: 0x4F04, symBinAddr: 0x100066140, symSize: 0x32C }
  - { offset: 0x705BA, size: 0x8, addend: 0x0, symName: __ZNSt3__118basic_stringstreamIcNS_11char_traitsIcEENS_9allocatorIcEEED1Ev, symObjAddr: 0x7C4, symBinAddr: 0x100061A00, symSize: 0x94 }
  - { offset: 0x70EB9, size: 0x8, addend: 0x0, symName: __ZNK6fuzzer13BlockCoverage15FunctionWeightsEm, symObjAddr: 0x984, symBinAddr: 0x100061BC0, symSize: 0x448 }
  - { offset: 0x719B4, size: 0x8, addend: 0x0, symName: __ZN6fuzzer13DataFlowTrace12ReadCoverageERKNSt3__112basic_stringIcNS1_11char_traitsIcEENS1_9allocatorIcEEEE, symObjAddr: 0xDCC, symBinAddr: 0x100062008, symSize: 0x24C }
  - { offset: 0x720E4, size: 0x8, addend: 0x0, symName: __ZN6fuzzer13DataFlowTrace12ReadCoverageERKNSt3__112basic_stringIcNS1_11char_traitsIcEENS1_9allocatorIcEEEE, symObjAddr: 0xDCC, symBinAddr: 0x100062008, symSize: 0x24C }
  - { offset: 0x72BAC, size: 0x8, addend: 0x0, symName: __ZNSt3__114basic_ifstreamIcNS_11char_traitsIcEEED1Ev, symObjAddr: 0x1018, symBinAddr: 0x100062254, symSize: 0x60 }
  - { offset: 0x72BD3, size: 0x8, addend: 0x0, symName: __ZNKSt3__112__hash_tableINS_12basic_stringIcNS_11char_traitsIcEENS_9allocatorIcEEEENS_4hashIS6_EENS_8equal_toIS6_EENS4_IS6_EEE4findIS6_EENS_21__hash_const_iteratorIPNS_11__hash_nodeIS6_PvEEEERKT_, symObjAddr: 0x5408, symBinAddr: 0x100066644, symSize: 0x270 }
  - { offset: 0x72F92, size: 0x8, addend: 0x0, symName: __ZNSt3__113basic_filebufIcNS_11char_traitsIcEEEC2Ev, symObjAddr: 0x604C, symBinAddr: 0x100067288, symSize: 0x118 }
  - { offset: 0x7309F, size: 0x8, addend: 0x0, symName: __ZNSt3__113basic_filebufIcNS_11char_traitsIcEEED2Ev, symObjAddr: 0x32B0, symBinAddr: 0x1000644EC, symSize: 0x8C }
  - { offset: 0x7315A, size: 0x8, addend: 0x0, symName: __ZNSt3__114basic_ifstreamIcNS_11char_traitsIcEEED1Ev, symObjAddr: 0x1018, symBinAddr: 0x100062254, symSize: 0x60 }
  - { offset: 0x73FE2, size: 0x8, addend: 0x0, symName: __ZN6fuzzer13DataFlowTrace4InitERKNSt3__112basic_stringIcNS1_11char_traitsIcEENS1_9allocatorIcEEEEPS7_RNS1_6vectorINS_9SizedFileENS5_ISC_EEEERNS_6RandomE, symObjAddr: 0x1078, symBinAddr: 0x1000622B4, symSize: 0x1258 }
  - { offset: 0x7827B, size: 0x8, addend: 0x0, symName: __ZN6fuzzer15CollectDataFlowERKNSt3__112basic_stringIcNS0_11char_traitsIcEENS0_9allocatorIcEEEES8_RKNS0_6vectorINS_9SizedFileENS4_ISA_EEEE, symObjAddr: 0x22D0, symBinAddr: 0x10006350C, symSize: 0x4D8 }
  - { offset: 0x78290, size: 0x8, addend: 0x0, symName: __ZNSt3__112__hash_tableINS_12basic_stringIcNS_11char_traitsIcEENS_9allocatorIcEEEENS_4hashIS6_EENS_8equal_toIS6_EENS4_IS6_EEE25__emplace_unique_key_argsIS6_JS6_EEENS_4pairINS_15__hash_iteratorIPNS_11__hash_nodeIS6_PvEEEEbEERKT_DpOT0_, symObjAddr: 0x6164, symBinAddr: 0x1000673A0, symSize: 0x444 }
  - { offset: 0x78A86, size: 0x8, addend: 0x0, symName: __ZNSt3__16vectorINS_12basic_stringIcNS_11char_traitsIcEENS_9allocatorIcEEEENS4_IS6_EEE21__push_back_slow_pathIRKS6_EEvOT_, symObjAddr: 0x6780, symBinAddr: 0x1000679BC, symSize: 0x158 }
  - { offset: 0x79090, size: 0x8, addend: 0x0, symName: __ZNSt3__131piecewise_constant_distributionIdE10param_typeC2INS_11__wrap_iterIPdEES6_EET_S7_T0_, symObjAddr: 0x68D8, symBinAddr: 0x100067B14, symSize: 0x3E0 }
  - { offset: 0x790A5, size: 0x8, addend: 0x0, symName: __ZNSt3__131piecewise_constant_distributionIdE10param_typeC2INS_11__wrap_iterIPdEES6_EET_S7_T0_, symObjAddr: 0x68D8, symBinAddr: 0x100067B14, symSize: 0x3E0 }
  - { offset: 0x79E34, size: 0x8, addend: 0x0, symName: __ZNSt3__16vectorIdNS_9allocatorIdEEE6assignEmRKd, symObjAddr: 0x6CB8, symBinAddr: 0x100067EF4, symSize: 0x22C }
  - { offset: 0x79E79, size: 0x8, addend: 0x0, symName: __ZNSt3__112__hash_tableINS_17__hash_value_typeINS_12basic_stringIcNS_11char_traitsIcEENS_9allocatorIcEEEENS_6vectorIhNS5_IhEEEEEENS_22__unordered_map_hasherIS7_SB_NS_4hashIS7_EENS_8equal_toIS7_EELb1EEENS_21__unordered_map_equalIS7_SB_SG_SE_Lb1EEENS5_ISB_EEE25__emplace_unique_key_argsIS7_JRKNS_21piecewise_construct_tENS_5tupleIJRKS7_EEENSQ_IJEEEEEENS_4pairINS_15__hash_iteratorIPNS_11__hash_nodeISB_PvEEEEbEERKT_DpOT0_, symObjAddr: 0x7364, symBinAddr: 0x1000685A0, symSize: 0x440 }
  - { offset: 0x7A907, size: 0x8, addend: 0x0, symName: __ZNSt3__16vectorINS_12basic_stringIcNS_11char_traitsIcEENS_9allocatorIcEEEENS4_IS6_EEE6insertENS_11__wrap_iterIPKS6_EERSA_, symObjAddr: 0x3E94, symBinAddr: 0x1000650D0, symSize: 0x2FC }
  - { offset: 0x7B593, size: 0x8, addend: 0x0, symName: __ZNSt3__114__split_bufferINS_12basic_stringIcNS_11char_traitsIcEENS_9allocatorIcEEEERNS4_IS6_EEE9push_backB7v160000ERKS6_, symObjAddr: 0x4190, symBinAddr: 0x1000653CC, symSize: 0x210 }
  - { offset: 0x7B59E, size: 0x8, addend: 0x0, symName: __ZNK6fuzzer7Command8toStringEv, symObjAddr: 0x27A8, symBinAddr: 0x1000639E4, symSize: 0x2B8 }
  - { offset: 0x7C203, size: 0x8, addend: 0x0, symName: __ZNKSt3__115basic_stringbufIcNS_11char_traitsIcEENS_9allocatorIcEEE3strEv, symObjAddr: 0x46B4, symBinAddr: 0x1000658F0, symSize: 0x234 }
  - { offset: 0x7C77C, size: 0x8, addend: 0x0, symName: __ZNSt3__115basic_stringbufIcNS_11char_traitsIcEENS_9allocatorIcEEE3strERKNS_12basic_stringIcS2_S4_EE, symObjAddr: 0x48E8, symBinAddr: 0x100065B24, symSize: 0x130 }
  - { offset: 0x7C787, size: 0x8, addend: 0x0, symName: __ZThn16_NSt3__118basic_stringstreamIcNS_11char_traitsIcEENS_9allocatorIcEEED1Ev, symObjAddr: 0x2A60, symBinAddr: 0x100063C9C, symSize: 0x8C }
  - { offset: 0x7C949, size: 0x8, addend: 0x0, symName: __ZTv0_n24_NSt3__118basic_stringstreamIcNS_11char_traitsIcEENS_9allocatorIcEEED1Ev, symObjAddr: 0x2AEC, symBinAddr: 0x100063D28, symSize: 0x94 }
  - { offset: 0x7CB09, size: 0x8, addend: 0x0, symName: __ZNSt3__118basic_stringstreamIcNS_11char_traitsIcEENS_9allocatorIcEEED0Ev, symObjAddr: 0x2B80, symBinAddr: 0x100063DBC, symSize: 0x94 }
  - { offset: 0x7CCF0, size: 0x8, addend: 0x0, symName: __ZThn16_NSt3__118basic_stringstreamIcNS_11char_traitsIcEENS_9allocatorIcEEED0Ev, symObjAddr: 0x2C14, symBinAddr: 0x100063E50, symSize: 0x94 }
  - { offset: 0x7CED2, size: 0x8, addend: 0x0, symName: __ZTv0_n24_NSt3__118basic_stringstreamIcNS_11char_traitsIcEENS_9allocatorIcEEED0Ev, symObjAddr: 0x2CA8, symBinAddr: 0x100063EE4, symSize: 0x9C }
  - { offset: 0x7D0B0, size: 0x8, addend: 0x0, symName: __ZNSt3__115basic_stringbufIcNS_11char_traitsIcEENS_9allocatorIcEEED1Ev, symObjAddr: 0x2D44, symBinAddr: 0x100063F80, symSize: 0x50 }
  - { offset: 0x7D21F, size: 0x8, addend: 0x0, symName: __ZNSt3__115basic_stringbufIcNS_11char_traitsIcEENS_9allocatorIcEEED0Ev, symObjAddr: 0x2D94, symBinAddr: 0x100063FD0, symSize: 0x58 }
  - { offset: 0x7D478, size: 0x8, addend: 0x0, symName: __ZNSt3__115basic_stringbufIcNS_11char_traitsIcEENS_9allocatorIcEEE7seekoffExNS_8ios_base7seekdirEj, symObjAddr: 0x2DEC, symBinAddr: 0x100064028, symSize: 0x128 }
  - { offset: 0x7D659, size: 0x8, addend: 0x0, symName: __ZNSt3__115basic_stringbufIcNS_11char_traitsIcEENS_9allocatorIcEEE7seekposENS_4fposI11__mbstate_tEEj, symObjAddr: 0x2F14, symBinAddr: 0x100064150, symSize: 0x18 }
  - { offset: 0x7D700, size: 0x8, addend: 0x0, symName: __ZNSt3__115basic_stringbufIcNS_11char_traitsIcEENS_9allocatorIcEEE9underflowEv, symObjAddr: 0x2F2C, symBinAddr: 0x100064168, symSize: 0x50 }
  - { offset: 0x7D7AD, size: 0x8, addend: 0x0, symName: __ZNSt3__115basic_stringbufIcNS_11char_traitsIcEENS_9allocatorIcEEE9pbackfailEi, symObjAddr: 0x2F7C, symBinAddr: 0x1000641B8, symSize: 0x6C }
  - { offset: 0x7D98A, size: 0x8, addend: 0x0, symName: __ZNSt3__115basic_stringbufIcNS_11char_traitsIcEENS_9allocatorIcEEE8overflowEi, symObjAddr: 0x2FE8, symBinAddr: 0x100064224, symSize: 0x19C }
  - { offset: 0x7DD04, size: 0x8, addend: 0x0, symName: __ZTv0_n24_NSt3__114basic_ifstreamIcNS_11char_traitsIcEEED1Ev, symObjAddr: 0x3184, symBinAddr: 0x1000643C0, symSize: 0x60 }
  - { offset: 0x7DD96, size: 0x8, addend: 0x0, symName: __ZNSt3__114basic_ifstreamIcNS_11char_traitsIcEEED0Ev, symObjAddr: 0x31E4, symBinAddr: 0x100064420, symSize: 0x60 }
  - { offset: 0x7DE47, size: 0x8, addend: 0x0, symName: __ZTv0_n24_NSt3__114basic_ifstreamIcNS_11char_traitsIcEEED0Ev, symObjAddr: 0x3244, symBinAddr: 0x100064480, symSize: 0x68 }
  - { offset: 0x7DEF7, size: 0x8, addend: 0x0, symName: __ZNSt3__113basic_filebufIcNS_11char_traitsIcEEED1Ev, symObjAddr: 0x32AC, symBinAddr: 0x1000644E8, symSize: 0x4 }
  - { offset: 0x7DF1B, size: 0x8, addend: 0x0, symName: __ZNSt3__113basic_filebufIcNS_11char_traitsIcEEED1Ev, symObjAddr: 0x32AC, symBinAddr: 0x1000644E8, symSize: 0x4 }
  - { offset: 0x7E005, size: 0x8, addend: 0x0, symName: __ZNSt3__113basic_filebufIcNS_11char_traitsIcEEE4syncEv, symObjAddr: 0x3728, symBinAddr: 0x100064964, symSize: 0x258 }
  - { offset: 0x7E2FA, size: 0x8, addend: 0x0, symName: __ZNSt3__113basic_filebufIcNS_11char_traitsIcEEE9underflowEv, symObjAddr: 0x3980, symBinAddr: 0x100064BBC, symSize: 0x2B0 }
  - { offset: 0x7E317, size: 0x8, addend: 0x0, symName: __ZNSt3__113basic_filebufIcNS_11char_traitsIcEEED0Ev, symObjAddr: 0x333C, symBinAddr: 0x100064578, symSize: 0x14 }
  - { offset: 0x7E393, size: 0x8, addend: 0x0, symName: __ZNSt3__113basic_filebufIcNS_11char_traitsIcEEE5imbueERKNS_6localeE, symObjAddr: 0x3350, symBinAddr: 0x10006458C, symSize: 0xFC }
  - { offset: 0x7E49A, size: 0x8, addend: 0x0, symName: __ZNSt3__113basic_filebufIcNS_11char_traitsIcEEE6setbufEPcl, symObjAddr: 0x344C, symBinAddr: 0x100064688, symSize: 0x110 }
  - { offset: 0x7E5AD, size: 0x8, addend: 0x0, symName: __ZNSt3__113basic_filebufIcNS_11char_traitsIcEEE7seekoffExNS_8ios_base7seekdirEj, symObjAddr: 0x355C, symBinAddr: 0x100064798, symSize: 0x110 }
  - { offset: 0x7E6EB, size: 0x8, addend: 0x0, symName: __ZNSt3__113basic_filebufIcNS_11char_traitsIcEEE7seekposENS_4fposI11__mbstate_tEEj, symObjAddr: 0x366C, symBinAddr: 0x1000648A8, symSize: 0xBC }
  - { offset: 0x7E732, size: 0x8, addend: 0x0, symName: __ZNSt3__113basic_filebufIcNS_11char_traitsIcEEE7seekposENS_4fposI11__mbstate_tEEj, symObjAddr: 0x366C, symBinAddr: 0x1000648A8, symSize: 0xBC }
  - { offset: 0x7E90D, size: 0x8, addend: 0x0, symName: __ZNSt3__113basic_filebufIcNS_11char_traitsIcEEE9underflowEv, symObjAddr: 0x3980, symBinAddr: 0x100064BBC, symSize: 0x2B0 }
  - { offset: 0x7ECAC, size: 0x8, addend: 0x0, symName: __ZNSt3__113basic_filebufIcNS_11char_traitsIcEEE9pbackfailEi, symObjAddr: 0x3C30, symBinAddr: 0x100064E6C, symSize: 0x5C }
  - { offset: 0x7ED16, size: 0x8, addend: 0x0, symName: __ZNSt3__113basic_filebufIcNS_11char_traitsIcEEE9pbackfailEi, symObjAddr: 0x3C30, symBinAddr: 0x100064E6C, symSize: 0x5C }
  - { offset: 0x7EE6C, size: 0x8, addend: 0x0, symName: __ZNSt3__113basic_filebufIcNS_11char_traitsIcEEE8overflowEi, symObjAddr: 0x3C8C, symBinAddr: 0x100064EC8, symSize: 0x1F0 }
  - { offset: 0x7F73C, size: 0x8, addend: 0x0, symName: __ZNSt3__114__split_bufferINS_12basic_stringIcNS_11char_traitsIcEENS_9allocatorIcEEEERNS4_IS6_EEE9push_backB7v160000ERKS6_, symObjAddr: 0x4190, symBinAddr: 0x1000653CC, symSize: 0x210 }
  - { offset: 0x7FF49, size: 0x8, addend: 0x0, symName: __ZNSt3__124__put_character_sequenceB7v160000IcNS_11char_traitsIcEEEERNS_13basic_ostreamIT_T0_EES7_PKS4_m, symObjAddr: 0x43A0, symBinAddr: 0x1000655DC, symSize: 0x110 }
  - { offset: 0x8058C, size: 0x8, addend: 0x0, symName: __ZNSt3__112__hash_tableImNS_4hashImEENS_8equal_toImEENS_9allocatorImEEE11__do_rehashILb1EEEvm, symObjAddr: 0x4D2C, symBinAddr: 0x100065F68, symSize: 0x1D8 }
  - { offset: 0x80A31, size: 0x8, addend: 0x0, symName: __ZNSt3__112__hash_tableINS_17__hash_value_typeImNS_6vectorIjNS_9allocatorIjEEEEEENS_22__unordered_map_hasherImS6_NS_4hashImEENS_8equal_toImEELb1EEENS_21__unordered_map_equalImS6_SB_S9_Lb1EEENS3_IS6_EEE25__emplace_unique_key_argsImJNS_4pairIKmS5_EEEEENSI_INS_15__hash_iteratorIPNS_11__hash_nodeIS6_PvEEEEbEERKT_DpOT0_, symObjAddr: 0x4F04, symBinAddr: 0x100066140, symSize: 0x32C }
  - { offset: 0x80D27, size: 0x8, addend: 0x0, symName: __ZNSt3__112__hash_tableINS_17__hash_value_typeImNS_6vectorIjNS_9allocatorIjEEEEEENS_22__unordered_map_hasherImS6_NS_4hashImEENS_8equal_toImEELb1EEENS_21__unordered_map_equalImS6_SB_S9_Lb1EEENS3_IS6_EEE11__do_rehashILb1EEEvm, symObjAddr: 0x5230, symBinAddr: 0x10006646C, symSize: 0x1D8 }
  - { offset: 0x811CC, size: 0x8, addend: 0x0, symName: __ZNKSt3__112__hash_tableINS_12basic_stringIcNS_11char_traitsIcEENS_9allocatorIcEEEENS_4hashIS6_EENS_8equal_toIS6_EENS4_IS6_EEE4findIS6_EENS_21__hash_const_iteratorIPNS_11__hash_nodeIS6_PvEEEERKT_, symObjAddr: 0x5408, symBinAddr: 0x100066644, symSize: 0x270 }
  - { offset: 0x813C0, size: 0x8, addend: 0x0, symName: __ZNSt3__121__murmur2_or_cityhashImLm64EEclEPKvm, symObjAddr: 0x5678, symBinAddr: 0x1000668B4, symSize: 0x628 }
  - { offset: 0x82512, size: 0x8, addend: 0x0, symName: __ZNSt3__121__murmur2_or_cityhashImLm64EE18__hash_len_0_to_16EPKcm, symObjAddr: 0x5CA0, symBinAddr: 0x100066EDC, symSize: 0x180 }
  - { offset: 0x827DE, size: 0x8, addend: 0x0, symName: __ZNSt3__121__murmur2_or_cityhashImLm64EE19__hash_len_33_to_64EPKcm, symObjAddr: 0x5E20, symBinAddr: 0x10006705C, symSize: 0x22C }
  - { offset: 0x82E27, size: 0x8, addend: 0x0, symName: __ZNSt3__112__hash_tableINS_12basic_stringIcNS_11char_traitsIcEENS_9allocatorIcEEEENS_4hashIS6_EENS_8equal_toIS6_EENS4_IS6_EEE11__do_rehashILb1EEEvm, symObjAddr: 0x65A8, symBinAddr: 0x1000677E4, symSize: 0x1D8 }
  - { offset: 0x832CC, size: 0x8, addend: 0x0, symName: __ZNSt3__16vectorINS_12basic_stringIcNS_11char_traitsIcEENS_9allocatorIcEEEENS4_IS6_EEE21__push_back_slow_pathIRKS6_EEvOT_, symObjAddr: 0x6780, symBinAddr: 0x1000679BC, symSize: 0x158 }
  - { offset: 0x83984, size: 0x8, addend: 0x0, symName: __ZNSt3__16vectorIdNS_9allocatorIdEEE8__appendEm, symObjAddr: 0x7158, symBinAddr: 0x100068394, symSize: 0x20C }
  - { offset: 0x83F1A, size: 0x8, addend: 0x0, symName: __ZNSt3__112__hash_tableINS_17__hash_value_typeINS_12basic_stringIcNS_11char_traitsIcEENS_9allocatorIcEEEENS_6vectorIhNS5_IhEEEEEENS_22__unordered_map_hasherIS7_SB_NS_4hashIS7_EENS_8equal_toIS7_EELb1EEENS_21__unordered_map_equalIS7_SB_SG_SE_Lb1EEENS5_ISB_EEE25__emplace_unique_key_argsIS7_JRKNS_21piecewise_construct_tENS_5tupleIJRKS7_EEENSQ_IJEEEEEENS_4pairINS_15__hash_iteratorIPNS_11__hash_nodeISB_PvEEEEbEERKT_DpOT0_, symObjAddr: 0x7364, symBinAddr: 0x1000685A0, symSize: 0x440 }
  - { offset: 0x83F25, size: 0x8, addend: 0x0, symName: __ZNSt3__16vectorIdNS_9allocatorIdEEE6assignEmRKd, symObjAddr: 0x6CB8, symBinAddr: 0x100067EF4, symSize: 0x22C }
  - { offset: 0x8449B, size: 0x8, addend: 0x0, symName: __ZNSt3__131piecewise_constant_distributionIdE10param_type6__initEv, symObjAddr: 0x6EE4, symBinAddr: 0x100068120, symSize: 0x274 }
  - { offset: 0x844A6, size: 0x8, addend: 0x0, symName: __ZNSt3__131piecewise_constant_distributionIdE10param_type6__initEv, symObjAddr: 0x6EE4, symBinAddr: 0x100068120, symSize: 0x274 }
  - { offset: 0x84DD8, size: 0x8, addend: 0x0, symName: __ZNSt3__112__hash_tableINS_17__hash_value_typeINS_12basic_stringIcNS_11char_traitsIcEENS_9allocatorIcEEEENS_6vectorIhNS5_IhEEEEEENS_22__unordered_map_hasherIS7_SB_NS_4hashIS7_EENS_8equal_toIS7_EELb1EEENS_21__unordered_map_equalIS7_SB_SG_SE_Lb1EEENS5_ISB_EEE11__do_rehashILb1EEEvm, symObjAddr: 0x77A4, symBinAddr: 0x1000689E0, symSize: 0x1D8 }
  - { offset: 0x85780, size: 0x8, addend: 0x0, symName: __ZN6fuzzerL2MuE, symObjAddr: 0x9EF0, symBinAddr: 0x1000AC110, symSize: 0x0 }
  - { offset: 0x8579B, size: 0x8, addend: 0x0, symName: __ZN6fuzzer2EFE, symObjAddr: 0x16EAE0, symBinAddr: 0x1000ADE88, symSize: 0x0 }
  - { offset: 0x858D2, size: 0x8, addend: 0x0, symName: __MergedGlobals, symObjAddr: 0x16EAE8, symBinAddr: 0x1000E1A20, symSize: 0x0 }
  - { offset: 0x85D4D, size: 0x8, addend: 0x0, symName: __MergedGlobals, symObjAddr: 0x16EAE8, symBinAddr: 0x1000E1A20, symSize: 0x0 }
  - { offset: 0x85D69, size: 0x8, addend: 0x0, symName: __MergedGlobals, symObjAddr: 0x16EAE8, symBinAddr: 0x1000E1A20, symSize: 0x0 }
  - { offset: 0x85D92, size: 0x8, addend: 0x0, symName: __ZN6fuzzerL16FlagDescriptionsE, symObjAddr: 0xD0C0, symBinAddr: 0x1000A8CA8, symSize: 0x0 }
  - { offset: 0x87A10, size: 0x8, addend: 0x0, symName: __ZN6fuzzer17CloneArgsWithoutXERKNSt3__16vectorINS0_12basic_stringIcNS0_11char_traitsIcEENS0_9allocatorIcEEEENS5_IS7_EEEEPKcSD_, symObjAddr: 0x4, symBinAddr: 0x100068BBC, symSize: 0x1EC }
  - { offset: 0x88604, size: 0x8, addend: 0x0, symName: __ZN6fuzzer10RunOneTestEPNS_6FuzzerEPKcm, symObjAddr: 0x1F0, symBinAddr: 0x100068DA8, symSize: 0x154 }
  - { offset: 0x8860F, size: 0x8, addend: 0x0, symName: __ZN6fuzzer10RunOneTestEPNS_6FuzzerEPKcm, symObjAddr: 0x1F0, symBinAddr: 0x100068DA8, symSize: 0x154 }
  - { offset: 0x88E0E, size: 0x8, addend: 0x0, symName: __ZNSt3__112basic_stringIcNS_11char_traitsIcEENS_9allocatorIcEEEC1B7v160000IDnEEPKc, symObjAddr: 0x344, symBinAddr: 0x100068EFC, symSize: 0x98 }
  - { offset: 0x88E39, size: 0x8, addend: 0x0, symName: __ZN6fuzzer17CleanseCrashInputERKNSt3__16vectorINS0_12basic_stringIcNS0_11char_traitsIcEENS0_9allocatorIcEEEENS5_IS7_EEEERKNS_14FuzzingOptionsE, symObjAddr: 0x3DC, symBinAddr: 0x100068F94, symSize: 0x85C }
  - { offset: 0x8B131, size: 0x8, addend: 0x0, symName: __ZN6fuzzer7Command10removeFlagERKNSt3__112basic_stringIcNS1_11char_traitsIcEENS1_9allocatorIcEEEE, symObjAddr: 0xC38, symBinAddr: 0x1000697F0, symSize: 0x200 }
  - { offset: 0x8B1C1, size: 0x8, addend: 0x0, symName: __ZN6fuzzer18MinimizeCrashInputERKNSt3__16vectorINS0_12basic_stringIcNS0_11char_traitsIcEENS0_9allocatorIcEEEENS5_IS7_EEEERKNS_14FuzzingOptionsE, symObjAddr: 0xFD4, symBinAddr: 0x100069B8C, symSize: 0xCB4 }
  - { offset: 0x90912, size: 0x8, addend: 0x0, symName: __ZN6fuzzer7Command7addFlagERKNSt3__112basic_stringIcNS1_11char_traitsIcEENS1_9allocatorIcEEEES9_, symObjAddr: 0x1C88, symBinAddr: 0x10006A840, symSize: 0x194 }
  - { offset: 0x9093F, size: 0x8, addend: 0x0, symName: __ZN6fuzzerL26GetDedupTokenFromCmdOutputERKNSt3__112basic_stringIcNS0_11char_traitsIcEENS0_9allocatorIcEEEE, symObjAddr: 0x20D4, symBinAddr: 0x10006A9D4, symSize: 0x198 }
  - { offset: 0x90D7D, size: 0x8, addend: 0x0, symName: __ZN6fuzzer30MinimizeCrashInputInternalStepEPNS_6FuzzerEPNS_11InputCorpusE, symObjAddr: 0x226C, symBinAddr: 0x10006AB6C, symSize: 0xC0 }
  - { offset: 0x90D9E, size: 0x8, addend: 0x0, symName: __ZN6fuzzer30MinimizeCrashInputInternalStepEPNS_6FuzzerEPNS_11InputCorpusE, symObjAddr: 0x226C, symBinAddr: 0x10006AB6C, symSize: 0xC0 }
  - { offset: 0x90F4A, size: 0x8, addend: 0x0, symName: __ZN6fuzzer5MergeEPNS_6FuzzerERNS_14FuzzingOptionsERKNSt3__16vectorINS4_12basic_stringIcNS4_11char_traitsIcEENS4_9allocatorIcEEEENS9_ISB_EEEESF_PKc, symObjAddr: 0x232C, symBinAddr: 0x10006AC2C, symSize: 0x2E0 }
  - { offset: 0x90F5C, size: 0x8, addend: 0x0, symName: __ZN6fuzzer5MergeEPNS_6FuzzerERNS_14FuzzingOptionsERKNSt3__16vectorINS4_12basic_stringIcNS4_11char_traitsIcEENS4_9allocatorIcEEEENS9_ISB_EEEESF_PKc, symObjAddr: 0x232C, symBinAddr: 0x10006AC2C, symSize: 0x2E0 }
  - { offset: 0x92252, size: 0x8, addend: 0x0, symName: __ZN6fuzzer17AnalyzeDictionaryEPNS_6FuzzerERKNSt3__16vectorINS3_IhNS2_9allocatorIhEEEENS4_IS6_EEEERS8_, symObjAddr: 0x260C, symBinAddr: 0x10006AF0C, symSize: 0x65C }
  - { offset: 0x922BF, size: 0x8, addend: 0x0, symName: __ZN6fuzzer17AnalyzeDictionaryEPNS_6FuzzerERKNSt3__16vectorINS3_IhNS2_9allocatorIhEEEENS4_IS6_EEEERS8_, symObjAddr: 0x260C, symBinAddr: 0x10006AF0C, symSize: 0x65C }
  - { offset: 0x93AB8, size: 0x8, addend: 0x0, symName: '__ZNK6fuzzer7TracePC15CollectFeaturesIZNS_17AnalyzeDictionaryEPNS_6FuzzerERKNSt3__16vectorINS5_IhNS4_9allocatorIhEEEENS6_IS8_EEEERSA_E3$_0EEmT_', symObjAddr: 0x2C68, symBinAddr: 0x10006B568, symSize: 0x470 }
  - { offset: 0x9424A, size: 0x8, addend: 0x0, symName: '__ZN6fuzzer18ForEachNonZeroByteIZNKS_7TracePC15CollectFeaturesIZNS_17AnalyzeDictionaryEPNS_6FuzzerERKNSt3__16vectorINS6_IhNS5_9allocatorIhEEEENS7_IS9_EEEERSB_E3$_0EEmT_EUlmmhE_EEmPKhSJ_mSG_', symObjAddr: 0x8F58, symBinAddr: 0x1000704E8, symSize: 0x3A0 }
  - { offset: 0x94590, size: 0x8, addend: 0x0, symName: '__ZN6fuzzer18ForEachNonZeroByteIZNKS_7TracePC15CollectFeaturesIZNS_17AnalyzeDictionaryEPNS_6FuzzerERKNSt3__16vectorINS6_IhNS5_9allocatorIhEEEENS7_IS9_EEEERSB_E3$_1EEmT_EUlmmhE_EEmPKhSJ_mSG_', symObjAddr: 0x95FC, symBinAddr: 0x100070B8C, symSize: 0x3A0 }
  - { offset: 0x948B6, size: 0x8, addend: 0x0, symName: __ZN6fuzzer14ParseSeedInutsEPKc, symObjAddr: 0x3548, symBinAddr: 0x10006BE48, symSize: 0x25C }
  - { offset: 0x9572B, size: 0x8, addend: 0x0, symName: __ZNSt3__16vectorINS_12basic_stringIcNS_11char_traitsIcEENS_9allocatorIcEEEENS4_IS6_EEED1B7v160000Ev, symObjAddr: 0x37A4, symBinAddr: 0x10006C0A4, symSize: 0x74 }
  - { offset: 0x959FD, size: 0x8, addend: 0x0, symName: __ZN6fuzzer12FuzzerDriverEPiPPPcPFiPKhmE, symObjAddr: 0x3818, symBinAddr: 0x10006C118, symSize: 0x1F30 }
  - { offset: 0x9D405, size: 0x8, addend: 0x0, symName: __ZN6fuzzerL23ValidateDirectoryExistsERKNSt3__112basic_stringIcNS0_11char_traitsIcEENS0_9allocatorIcEEEEb, symObjAddr: 0x5748, symBinAddr: 0x10006E048, symSize: 0xAC }
  - { offset: 0x9D455, size: 0x8, addend: 0x0, symName: __ZN6fuzzerL23ValidateDirectoryExistsERKNSt3__112basic_stringIcNS0_11char_traitsIcEENS0_9allocatorIcEEEEb, symObjAddr: 0x5748, symBinAddr: 0x10006E048, symSize: 0xAC }
  - { offset: 0x9D619, size: 0x8, addend: 0x0, symName: __ZN6fuzzerL11ReadCorporaERKNSt3__16vectorINS0_12basic_stringIcNS0_11char_traitsIcEENS0_9allocatorIcEEEENS5_IS7_EEEESB_, symObjAddr: 0x57F4, symBinAddr: 0x10006E0F4, symSize: 0x14C }
  - { offset: 0x9D694, size: 0x8, addend: 0x0, symName: __ZN6fuzzerL11ReadCorporaERKNSt3__16vectorINS0_12basic_stringIcNS0_11char_traitsIcEENS0_9allocatorIcEEEENS5_IS7_EEEESB_, symObjAddr: 0x57F4, symBinAddr: 0x10006E0F4, symSize: 0x14C }
  - { offset: 0x9DD4D, size: 0x8, addend: 0x0, symName: __ZN6fuzzerL11PulseThreadEv, symObjAddr: 0x6EB8, symBinAddr: 0x10006E5A0, symSize: 0x40 }
  - { offset: 0x9DE2D, size: 0x8, addend: 0x0, symName: __ZN6fuzzerL12WorkerThreadERKNS_7CommandEPNSt3__16atomicIjEEjPNS4_IbEE, symObjAddr: 0x6EF8, symBinAddr: 0x10006E5E0, symSize: 0x2F0 }
  - { offset: 0x9EECA, size: 0x8, addend: 0x0, symName: __ZNSt3__114__thread_proxyB7v160000INS_5tupleIJNS_10unique_ptrINS_15__thread_structENS_14default_deleteIS3_EEEEPFvvEEEEEEPvSA_, symObjAddr: 0x71E8, symBinAddr: 0x10006E8D0, symSize: 0x58 }
  - { offset: 0x9EEE7, size: 0x8, addend: 0x0, symName: __ZN6fuzzerL9RssThreadEPNS_6FuzzerEm, symObjAddr: 0x7670, symBinAddr: 0x10006ED58, symSize: 0x34 }
  - { offset: 0xB9B32, size: 0x8, addend: 0x0, symName: __ZNSt3__111__introsortINS_17_ClassicAlgPolicyERNS_6__lessIN6fuzzer9SizedFileES4_EEPS4_Lb0EEEvT1_S8_T0_NS_15iterator_traitsIS8_E15difference_typeEb, symObjAddr: 0x7858, symBinAddr: 0x10006EDE8, symSize: 0x5AC }
  - { offset: 0xBADEA, size: 0x8, addend: 0x0, symName: __ZNSt3__111__sift_downB7v160000INS_17_ClassicAlgPolicyERNS_6__lessIN6fuzzer9SizedFileES4_EEPS4_EEvT1_OT0_NS_15iterator_traitsIS8_E15difference_typeES8_, symObjAddr: 0x8B44, symBinAddr: 0x1000700D4, symSize: 0x178 }
  - { offset: 0xBB366, size: 0x8, addend: 0x0, symName: __ZNSt3__131__partition_with_equals_on_leftB7v160000INS_17_ClassicAlgPolicyEPN6fuzzer9SizedFileERNS_6__lessIS3_S3_EEEET0_S8_S8_T1_, symObjAddr: 0x80AC, symBinAddr: 0x10006F63C, symSize: 0x1D4 }
  - { offset: 0xBBBFD, size: 0x8, addend: 0x0, symName: __ZNSt3__132__partition_with_equals_on_rightB7v160000INS_17_ClassicAlgPolicyEPN6fuzzer9SizedFileERNS_6__lessIS3_S3_EEEENS_4pairIT0_bEES9_S9_T1_, symObjAddr: 0x8280, symBinAddr: 0x10006F810, symSize: 0x1E0 }
  - { offset: 0xBC478, size: 0x8, addend: 0x0, symName: __ZNSt3__127__insertion_sort_incompleteIRNS_6__lessIN6fuzzer9SizedFileES3_EEPS3_EEbT0_S7_T_, symObjAddr: 0x8460, symBinAddr: 0x10006F9F0, symSize: 0x274 }
  - { offset: 0xC3244, size: 0x8, addend: 0x0, symName: __ZNSt3__19remove_ifB7v160000INS_11__wrap_iterIPNS_12basic_stringIcNS_11char_traitsIcEENS_9allocatorIcEEEEEEZN6fuzzer7Command10removeFlagERKS7_EUlSD_E_EET_SF_SF_T0_, symObjAddr: 0x59C4, symBinAddr: 0x10006E2B8, symSize: 0xF4 }
  - { offset: 0xC35BA, size: 0x8, addend: 0x0, symName: __ZNSt3__16removeB7v160000INS_11__wrap_iterIPNS_12basic_stringIcNS_11char_traitsIcEENS_9allocatorIcEEEEEES7_EET_SA_SA_RKT0_, symObjAddr: 0x5AB8, symBinAddr: 0x10006E3AC, symSize: 0x1F4 }
  - { offset: 0xCADE1, size: 0x8, addend: 0x0, symName: __ZNSt3__114__thread_proxyB7v160000INS_5tupleIJNS_10unique_ptrINS_15__thread_structENS_14default_deleteIS3_EEEEPFvvEEEEEEPvSA_, symObjAddr: 0x71E8, symBinAddr: 0x10006E8D0, symSize: 0x58 }
  - { offset: 0xCB1CD, size: 0x8, addend: 0x0, symName: __ZNSt3__114__thread_proxyB7v160000INS_5tupleIJNS_10unique_ptrINS_15__thread_structENS_14default_deleteIS3_EEEEPFvRKN6fuzzer7CommandEPNS_6atomicIjEEjPNSB_IbEEENS_17reference_wrapperIS8_EESD_jSF_EEEEEPvSL_, symObjAddr: 0x7240, symBinAddr: 0x10006E928, symSize: 0x64 }
  - { offset: 0xCB74D, size: 0x8, addend: 0x0, symName: __ZNSt3__114__thread_proxyB7v160000INS_5tupleIJNS_10unique_ptrINS_15__thread_structENS_14default_deleteIS3_EEEEPFvPN6fuzzer6FuzzerEmES9_mEEEEEPvSD_, symObjAddr: 0x76A4, symBinAddr: 0x10006ED8C, symSize: 0x5C }
  - { offset: 0xCC048, size: 0x8, addend: 0x0, symName: __ZNSt3__17__sort3B7v160000INS_17_ClassicAlgPolicyERNS_6__lessIN6fuzzer9SizedFileES4_EEPS4_EEjT1_S8_S8_T0_, symObjAddr: 0x7E04, symBinAddr: 0x10006F394, symSize: 0x2A8 }
  - { offset: 0xCD0E6, size: 0x8, addend: 0x0, symName: __ZNSt3__17__sort4B7v160000INS_17_ClassicAlgPolicyERNS_6__lessIN6fuzzer9SizedFileES4_EEPS4_EEjT1_S8_S8_S8_T0_, symObjAddr: 0x86D4, symBinAddr: 0x10006FC64, symSize: 0x1F0 }
  - { offset: 0xCDBB1, size: 0x8, addend: 0x0, symName: __ZNSt3__17__sort5IRNS_6__lessIN6fuzzer9SizedFileES3_EEPS3_EEjT0_S7_S7_S7_S7_T_, symObjAddr: 0x88C4, symBinAddr: 0x10006FE54, symSize: 0x280 }
  - { offset: 0xCE9FB, size: 0x8, addend: 0x0, symName: __ZNSt3__110__pop_heapB7v160000INS_17_ClassicAlgPolicyENS_6__lessIN6fuzzer9SizedFileES4_EEPS4_EEvT1_S7_RT0_NS_15iterator_traitsIS7_E15difference_typeE, symObjAddr: 0x8CBC, symBinAddr: 0x10007024C, symSize: 0x25C }
  - { offset: 0xCFA02, size: 0x8, addend: 0x0, symName: __ZNSt3__19remove_ifB7v160000INS_11__wrap_iterIPNS_12basic_stringIcNS_11char_traitsIcEENS_9allocatorIcEEEEEEZN6fuzzer7Command10removeFlagERKS7_EUlSD_E_EET_SF_SF_T0_, symObjAddr: 0x59C4, symBinAddr: 0x10006E2B8, symSize: 0xF4 }
  - { offset: 0xD3E74, size: 0x8, addend: 0x0, symName: ___libfuzzer_is_present, symObjAddr: 0x0, symBinAddr: 0x100068BB8, symSize: 0x4 }
  - { offset: 0xD4564, size: 0x8, addend: 0x0, symName: __ZNSt3__112basic_stringIcNS_11char_traitsIcEENS_9allocatorIcEEEC1B7v160000IDnEEPKc, symObjAddr: 0x344, symBinAddr: 0x100068EFC, symSize: 0x98 }
  - { offset: 0xD495D, size: 0x8, addend: 0x0, symName: __ZN6fuzzer17CleanseCrashInputERKNSt3__16vectorINS0_12basic_stringIcNS0_11char_traitsIcEENS0_9allocatorIcEEEENS5_IS7_EEEERKNS_14FuzzingOptionsE, symObjAddr: 0x3DC, symBinAddr: 0x100068F94, symSize: 0x85C }
  - { offset: 0xD5157, size: 0x8, addend: 0x0, symName: __ZN6fuzzer7Command10removeFlagERKNSt3__112basic_stringIcNS1_11char_traitsIcEENS1_9allocatorIcEEEE, symObjAddr: 0xC38, symBinAddr: 0x1000697F0, symSize: 0x200 }
  - { offset: 0xD5B71, size: 0x8, addend: 0x0, symName: __ZN6fuzzer7Command14removeArgumentERKNSt3__112basic_stringIcNS1_11char_traitsIcEENS1_9allocatorIcEEEE, symObjAddr: 0xE38, symBinAddr: 0x1000699F0, symSize: 0x19C }
  - { offset: 0xD5BA8, size: 0x8, addend: 0x0, symName: __ZN6fuzzer7Command14removeArgumentERKNSt3__112basic_stringIcNS1_11char_traitsIcEENS1_9allocatorIcEEEE, symObjAddr: 0xE38, symBinAddr: 0x1000699F0, symSize: 0x19C }
  - { offset: 0xD62A0, size: 0x8, addend: 0x0, symName: __ZN6fuzzer18MinimizeCrashInputERKNSt3__16vectorINS0_12basic_stringIcNS0_11char_traitsIcEENS0_9allocatorIcEEEENS5_IS7_EEEERKNS_14FuzzingOptionsE, symObjAddr: 0xFD4, symBinAddr: 0x100069B8C, symSize: 0xCB4 }
  - { offset: 0xD6C80, size: 0x8, addend: 0x0, symName: __ZN6fuzzer7Command7addFlagERKNSt3__112basic_stringIcNS1_11char_traitsIcEENS1_9allocatorIcEEEES9_, symObjAddr: 0x1C88, symBinAddr: 0x10006A840, symSize: 0x194 }
  - { offset: 0xD806B, size: 0x8, addend: 0x0, symName: __ZN6fuzzerL11PulseThreadEv, symObjAddr: 0x6EB8, symBinAddr: 0x10006E5A0, symSize: 0x40 }
  - { offset: 0xD84F6, size: 0x8, addend: 0x0, symName: __ZNSt3__16__treeIjNS_4lessIjEENS_9allocatorIjEEE7destroyEPNS_11__tree_nodeIjPvEE, symObjAddr: 0x8F18, symBinAddr: 0x1000704A8, symSize: 0x40 }
  - { offset: 0xD9459, size: 0x8, addend: 0x0, symName: '__ZNK6fuzzer7TracePC15CollectFeaturesIZNS_17AnalyzeDictionaryEPNS_6FuzzerERKNSt3__16vectorINS5_IhNS4_9allocatorIhEEEENS6_IS8_EEEERSA_E3$_0EEmT_', symObjAddr: 0x2C68, symBinAddr: 0x10006B568, symSize: 0x470 }
  - { offset: 0xD9FFF, size: 0x8, addend: 0x0, symName: '__ZNK6fuzzer7TracePC15CollectFeaturesIZNS_17AnalyzeDictionaryEPNS_6FuzzerERKNSt3__16vectorINS5_IhNS4_9allocatorIhEEEENS6_IS8_EEEERSA_E3$_1EEmT_', symObjAddr: 0x30D8, symBinAddr: 0x10006B9D8, symSize: 0x470 }
  - { offset: 0xDA053, size: 0x8, addend: 0x0, symName: '__ZNK6fuzzer7TracePC15CollectFeaturesIZNS_17AnalyzeDictionaryEPNS_6FuzzerERKNSt3__16vectorINS5_IhNS4_9allocatorIhEEEENS6_IS8_EEEERSA_E3$_1EEmT_', symObjAddr: 0x30D8, symBinAddr: 0x10006B9D8, symSize: 0x470 }
  - { offset: 0xDABF9, size: 0x8, addend: 0x0, symName: __ZN6fuzzer14ParseSeedInutsEPKc, symObjAddr: 0x3548, symBinAddr: 0x10006BE48, symSize: 0x25C }
  - { offset: 0xDB3C3, size: 0x8, addend: 0x0, symName: __ZNSt3__16vectorINS_12basic_stringIcNS_11char_traitsIcEENS_9allocatorIcEEEENS4_IS6_EEE21__push_back_slow_pathIS6_EEvOT_, symObjAddr: 0x9CA0, symBinAddr: 0x100071230, symSize: 0x164 }
  - { offset: 0xDBDDD, size: 0x8, addend: 0x0, symName: __ZNSt3__111__introsortINS_17_ClassicAlgPolicyERNS_6__lessIN6fuzzer9SizedFileES4_EEPS4_Lb0EEEvT1_S8_T0_NS_15iterator_traitsIS8_E15difference_typeEb, symObjAddr: 0x7858, symBinAddr: 0x10006EDE8, symSize: 0x5AC }
  - { offset: 0xDBDF2, size: 0x8, addend: 0x0, symName: __ZNSt3__16vectorINS_12basic_stringIcNS_11char_traitsIcEENS_9allocatorIcEEEENS4_IS6_EEED1B7v160000Ev, symObjAddr: 0x37A4, symBinAddr: 0x10006C0A4, symSize: 0x74 }
  - { offset: 0xDDE79, size: 0x8, addend: 0x0, symName: __ZN6fuzzer11InputCorpusC2ERKNSt3__112basic_stringIcNS1_11char_traitsIcEENS1_9allocatorIcEEEENS_15EntropicOptionsE, symObjAddr: 0x73E4, symBinAddr: 0x10006EACC, symSize: 0x15C }
  - { offset: 0xDE992, size: 0x8, addend: 0x0, symName: __ZN6fuzzer14FuzzingOptionsD2Ev, symObjAddr: 0x7540, symBinAddr: 0x10006EC28, symSize: 0x130 }
  - { offset: 0xDF677, size: 0x8, addend: 0x0, symName: __ZNSt3__16vectorINS0_IhNS_9allocatorIhEEEENS1_IS3_EEED1B7v160000Ev, symObjAddr: 0x5940, symBinAddr: 0x10006E240, symSize: 0x74 }
  - { offset: 0xDFB02, size: 0x8, addend: 0x0, symName: __ZNSt3__16vectorIN6fuzzer9SizedFileENS_9allocatorIS2_EEE21__push_back_slow_pathIS2_EEvOT_, symObjAddr: 0x72A4, symBinAddr: 0x10006E98C, symSize: 0x140 }
  - { offset: 0xE021D, size: 0x8, addend: 0x0, symName: __ZN6fuzzer11InputCorpusC2ERKNSt3__112basic_stringIcNS1_11char_traitsIcEENS1_9allocatorIcEEEENS_15EntropicOptionsE, symObjAddr: 0x73E4, symBinAddr: 0x10006EACC, symSize: 0x15C }
  - { offset: 0xE0232, size: 0x8, addend: 0x0, symName: _LLVMFuzzerRunDriver, symObjAddr: 0x59B4, symBinAddr: 0x10006E2B4, symSize: 0x4 }
  - { offset: 0xE027E, size: 0x8, addend: 0x0, symName: _LLVMFuzzerRunDriver, symObjAddr: 0x59B4, symBinAddr: 0x10006E2B4, symSize: 0x4 }
  - { offset: 0xE2254, size: 0x8, addend: 0x0, symName: '__ZZNK6fuzzer7TracePC15CollectFeaturesIZNS_17AnalyzeDictionaryEPNS_6FuzzerERKNSt3__16vectorINS5_IhNS4_9allocatorIhEEEENS6_IS8_EEEERSA_E3$_0EEmT_ENKUlmmhE_clEmmh', symObjAddr: 0x92F8, symBinAddr: 0x100070888, symSize: 0x304 }
  - { offset: 0xE28DE, size: 0x8, addend: 0x0, symName: '__ZN6fuzzer18ForEachNonZeroByteIZNKS_7TracePC15CollectFeaturesIZNS_17AnalyzeDictionaryEPNS_6FuzzerERKNSt3__16vectorINS6_IhNS5_9allocatorIhEEEENS7_IS9_EEEERSB_E3$_1EEmT_EUlmmhE_EEmPKhSJ_mSG_', symObjAddr: 0x95FC, symBinAddr: 0x100070B8C, symSize: 0x3A0 }
  - { offset: 0xE28F3, size: 0x8, addend: 0x0, symName: '__ZZNK6fuzzer7TracePC15CollectFeaturesIZNS_17AnalyzeDictionaryEPNS_6FuzzerERKNSt3__16vectorINS5_IhNS4_9allocatorIhEEEENS6_IS8_EEEERSA_E3$_1EEmT_ENKUlmmhE_clEmmh', symObjAddr: 0x999C, symBinAddr: 0x100070F2C, symSize: 0x304 }
  - { offset: 0xE2F7D, size: 0x8, addend: 0x0, symName: __ZNSt3__16vectorINS_12basic_stringIcNS_11char_traitsIcEENS_9allocatorIcEEEENS4_IS6_EEE21__push_back_slow_pathIS6_EEvOT_, symObjAddr: 0x9CA0, symBinAddr: 0x100071230, symSize: 0x164 }
  - { offset: 0xE2FE5, size: 0x8, addend: 0x0, symName: __ZN6fuzzer17ExternalFunctionsC2Ev, symObjAddr: 0x0, symBinAddr: 0x1000713B0, symSize: 0x2F4 }
  - { offset: 0xE6206, size: 0x8, addend: 0x0, symName: __ZN6fuzzer17ExternalFunctionsC2Ev, symObjAddr: 0x0, symBinAddr: 0x1000713B0, symSize: 0x2F4 }
  - { offset: 0xE68CB, size: 0x8, addend: 0x0, symName: __ZN6fuzzer17ExternalFunctionsC1Ev, symObjAddr: 0x2F4, symBinAddr: 0x1000716A4, symSize: 0x4 }
  - { offset: 0xE68F9, size: 0x8, addend: 0x0, symName: __ZN6fuzzer17ExternalFunctionsC1Ev, symObjAddr: 0x2F4, symBinAddr: 0x1000716A4, symSize: 0x4 }
  - { offset: 0xE6938, size: 0x8, addend: 0x0, symName: __ZN6fuzzer18ExtraCountersBeginEv, symObjAddr: 0x0, symBinAddr: 0x1000716A8, symSize: 0x8 }
  - { offset: 0xE6A6E, size: 0x8, addend: 0x0, symName: __ZN6fuzzer18ExtraCountersBeginEv, symObjAddr: 0x0, symBinAddr: 0x1000716A8, symSize: 0x8 }
  - { offset: 0xE6A8C, size: 0x8, addend: 0x0, symName: __ZN6fuzzer16ExtraCountersEndEv, symObjAddr: 0x8, symBinAddr: 0x1000716B0, symSize: 0x8 }
  - { offset: 0xE6AAA, size: 0x8, addend: 0x0, symName: __ZN6fuzzer18ClearExtraCountersEv, symObjAddr: 0x10, symBinAddr: 0x1000716B8, symSize: 0x4 }
  - { offset: 0xE6AF0, size: 0x8, addend: 0x0, symName: __ZN6fuzzer12WorkerThreadEPNS_8JobQueueES1_, symObjAddr: 0x0, symBinAddr: 0x1000716BC, symSize: 0xE0 }
  - { offset: 0x102560, size: 0x8, addend: 0x0, symName: __ZNSt3__127__tree_balance_after_insertB7v160000IPNS_16__tree_node_baseIPvEEEEvT_S5_, symObjAddr: 0x5B2C, symBinAddr: 0x100076580, symSize: 0x1B4 }
  - { offset: 0x1034E6, size: 0x8, addend: 0x0, symName: __ZNSt3__1rsB7v160000IcNS_11char_traitsIcEENS_9allocatorIcEEEERNS_13basic_istreamIT_T0_EES9_RNS_12basic_stringIS6_S7_T1_EE, symObjAddr: 0x7404, symBinAddr: 0x100076C4C, symSize: 0x1B8 }
  - { offset: 0x105A79, size: 0x8, addend: 0x0, symName: __ZNSt3__16vectorINS_12basic_stringIcNS_11char_traitsIcEENS_9allocatorIcEEEENS4_IS6_EEE6assignIPS6_Li0EEEvT_SB_, symObjAddr: 0x876C, symBinAddr: 0x100077180, symSize: 0x20C }
  - { offset: 0x1084D2, size: 0x8, addend: 0x0, symName: __ZNSt3__114__thread_proxyB7v160000INS_5tupleIJNS_10unique_ptrINS_15__thread_structENS_14default_deleteIS3_EEEEPFvPN6fuzzer8JobQueueES9_ES9_S9_EEEEEPvSD_, symObjAddr: 0xA490, symBinAddr: 0x100077534, symSize: 0x5C }
  - { offset: 0x10950B, size: 0x8, addend: 0x0, symName: __ZN6fuzzer12WorkerThreadEPNS_8JobQueueES1_, symObjAddr: 0x0, symBinAddr: 0x1000716BC, symSize: 0xE0 }
  - { offset: 0x109912, size: 0x8, addend: 0x0, symName: __ZN6fuzzer12FuzzWithForkERNS_6RandomERKNS_14FuzzingOptionsERKNSt3__16vectorINS5_12basic_stringIcNS5_11char_traitsIcEENS5_9allocatorIcEEEENSA_ISC_EEEESG_i, symObjAddr: 0x19C, symBinAddr: 0x100071858, symSize: 0x19A4 }
  - { offset: 0x1113B0, size: 0x8, addend: 0x0, symName: __ZNSt3__13setIjNS_4lessIjEENS_9allocatorIjEEE6insertB7v160000INS_21__tree_const_iteratorIjPNS_11__tree_nodeIjPvEElEEEEvT_SD_, symObjAddr: 0x1B40, symBinAddr: 0x1000731FC, symSize: 0x10C }
  - { offset: 0x114993, size: 0x8, addend: 0x0, symName: __ZN6fuzzer8JobQueue3PopEv, symObjAddr: 0xE0, symBinAddr: 0x10007179C, symSize: 0xBC }
  - { offset: 0x114D1F, size: 0x8, addend: 0x0, symName: __ZNSt3__15dequeIPN6fuzzer7FuzzJobENS_9allocatorIS3_EEE19__add_back_capacityEv, symObjAddr: 0x406C, symBinAddr: 0x10007559C, symSize: 0x534 }
  - { offset: 0x115D58, size: 0x8, addend: 0x0, symName: __ZNSt3__114__split_bufferIPPN6fuzzer7FuzzJobENS_9allocatorIS4_EEE9push_backEOS4_, symObjAddr: 0x45A0, symBinAddr: 0x100075AD0, symSize: 0x178 }
  - { offset: 0x118871, size: 0x8, addend: 0x0, symName: __ZNSt3__16vectorINS_12basic_stringIcNS_11char_traitsIcEENS_9allocatorIcEEEENS4_IS6_EEE6assignIPS6_Li0EEEvT_SB_, symObjAddr: 0x876C, symBinAddr: 0x100077180, symSize: 0x20C }
  - { offset: 0x119284, size: 0x8, addend: 0x0, symName: __ZNSt3__13setIjNS_4lessIjEENS_9allocatorIjEEE6insertB7v160000INS_21__tree_const_iteratorIjPNS_11__tree_nodeIjPvEElEEEEvT_SD_, symObjAddr: 0x1B40, symBinAddr: 0x1000731FC, symSize: 0x10C }
  - { offset: 0x1196C0, size: 0x8, addend: 0x0, symName: __ZN6fuzzer9GlobalEnv12CreateNewJobEm, symObjAddr: 0x1C4C, symBinAddr: 0x100073308, symSize: 0x1444 }
  - { offset: 0x1226B0, size: 0x8, addend: 0x0, symName: '__ZZN6fuzzer12FuzzWithForkERNS_6RandomERKNS_14FuzzingOptionsERKNSt3__16vectorINS5_12basic_stringIcNS5_11char_traitsIcEENS5_9allocatorIcEEEENSA_ISC_EEEESG_iENK3$_0clEv', symObjAddr: 0x3090, symBinAddr: 0x10007474C, symSize: 0x254 }
  - { offset: 0x1226CF, size: 0x8, addend: 0x0, symName: '__ZZN6fuzzer12FuzzWithForkERNS_6RandomERKNS_14FuzzingOptionsERKNSt3__16vectorINS5_12basic_stringIcNS5_11char_traitsIcEENS5_9allocatorIcEEEENSA_ISC_EEEESG_iENK3$_0clEv', symObjAddr: 0x3090, symBinAddr: 0x10007474C, symSize: 0x254 }
  - { offset: 0x1234BE, size: 0x8, addend: 0x0, symName: __ZN6fuzzer9GlobalEnv14RunOneMergeJobEPNS_7FuzzJobE, symObjAddr: 0x32E4, symBinAddr: 0x1000749A0, symSize: 0xBB8 }
  - { offset: 0x1234C9, size: 0x8, addend: 0x0, symName: __ZN6fuzzer7FuzzJobD2Ev, symObjAddr: 0xA4EC, symBinAddr: 0x100077590, symSize: 0x160 }
  - { offset: 0x123E99, size: 0x8, addend: 0x0, symName: __ZN6fuzzer9GlobalEnv14RunOneMergeJobEPNS_7FuzzJobE, symObjAddr: 0x32E4, symBinAddr: 0x1000749A0, symSize: 0xBB8 }
  - { offset: 0x127E23, size: 0x8, addend: 0x0, symName: __ZNK6fuzzer9GlobalEnv26secondsSinceProcessStartUpEv, symObjAddr: 0x4028, symBinAddr: 0x100075558, symSize: 0x44 }
  - { offset: 0x12813F, size: 0x8, addend: 0x0, symName: __ZNSt3__16__treeIjNS_4lessIjEENS_9allocatorIjEEE12__find_equalIjEERPNS_16__tree_node_baseIPvEENS_21__tree_const_iteratorIjPNS_11__tree_nodeIjS8_EElEERPNS_15__tree_end_nodeISA_EESB_RKT_, symObjAddr: 0xA2E8, symBinAddr: 0x10007738C, symSize: 0x1A8 }
  - { offset: 0x1281A9, size: 0x8, addend: 0x0, symName: __ZNSt3__16__treeIjNS_4lessIjEENS_9allocatorIjEEE12__find_equalIjEERPNS_16__tree_node_baseIPvEENS_21__tree_const_iteratorIjPNS_11__tree_nodeIjS8_EElEERPNS_15__tree_end_nodeISA_EESB_RKT_, symObjAddr: 0xA2E8, symBinAddr: 0x10007738C, symSize: 0x1A8 }
  - { offset: 0x1281C7, size: 0x8, addend: 0x0, symName: __ZNSt3__16__treeIjNS_4lessIjEENS_9allocatorIjEEE12__find_equalIjEERPNS_16__tree_node_baseIPvEENS_21__tree_const_iteratorIjPNS_11__tree_nodeIjS8_EElEERPNS_15__tree_end_nodeISA_EESB_RKT_, symObjAddr: 0xA2E8, symBinAddr: 0x10007738C, symSize: 0x1A8 }
  - { offset: 0x129A24, size: 0x8, addend: 0x0, symName: __ZNK6fuzzer7Command7hasFlagERKNSt3__112basic_stringIcNS1_11char_traitsIcEENS1_9allocatorIcEEEE, symObjAddr: 0x4DDC, symBinAddr: 0x100075DD0, symSize: 0x190 }
  - { offset: 0x129A2F, size: 0x8, addend: 0x0, symName: __ZNK6fuzzer7Command7hasFlagERKNSt3__112basic_stringIcNS1_11char_traitsIcEENS1_9allocatorIcEEEE, symObjAddr: 0x4DDC, symBinAddr: 0x100075DD0, symSize: 0x190 }
  - { offset: 0x12A083, size: 0x8, addend: 0x0, symName: __ZN6fuzzer9GlobalEnv10CollectDFTERKNSt3__112basic_stringIcNS1_11char_traitsIcEENS1_9allocatorIcEEEE, symObjAddr: 0x4F6C, symBinAddr: 0x100075F60, symSize: 0x4EC }
  - { offset: 0x12A08E, size: 0x8, addend: 0x0, symName: __ZN6fuzzer9GlobalEnv10CollectDFTERKNSt3__112basic_stringIcNS1_11char_traitsIcEENS1_9allocatorIcEEEE, symObjAddr: 0x4F6C, symBinAddr: 0x100075F60, symSize: 0x4EC }
  - { offset: 0x12DBF9, size: 0x8, addend: 0x0, symName: __ZNSt3__16vectorIN6fuzzer9SizedFileENS_9allocatorIS2_EEE21__push_back_slow_pathIRKS2_EEvOT_, symObjAddr: 0x7924, symBinAddr: 0x10007703C, symSize: 0x144 }
  - { offset: 0x12E46A, size: 0x8, addend: 0x0, symName: __ZNK6fuzzer7Command12getFlagValueERKNSt3__112basic_stringIcNS1_11char_traitsIcEENS1_9allocatorIcEEEE, symObjAddr: 0x6EEC, symBinAddr: 0x100076734, symSize: 0x1DC }
  - { offset: 0x12EC51, size: 0x8, addend: 0x0, symName: __ZNSt3__16vectorImNS_9allocatorImEEE6insertENS_11__wrap_iterIPKmEERS5_, symObjAddr: 0x70C8, symBinAddr: 0x100076910, symSize: 0x33C }
  - { offset: 0x12EC5C, size: 0x8, addend: 0x0, symName: __ZNSt3__16vectorImNS_9allocatorImEEE6insertENS_11__wrap_iterIPKmEERS5_, symObjAddr: 0x70C8, symBinAddr: 0x100076910, symSize: 0x33C }
  - { offset: 0x12F732, size: 0x8, addend: 0x0, symName: __ZNSt3__1rsB7v160000IcNS_11char_traitsIcEENS_9allocatorIcEEEERNS_13basic_istreamIT_T0_EES9_RNS_12basic_stringIS6_S7_T1_EE, symObjAddr: 0x7404, symBinAddr: 0x100076C4C, symSize: 0x1B8 }
  - { offset: 0x12FAB1, size: 0x8, addend: 0x0, symName: __ZNSt3__16__treeIjNS_4lessIjEENS_9allocatorIjEEE12__find_equalIjEERPNS_16__tree_node_baseIPvEENS_21__tree_const_iteratorIjPNS_11__tree_nodeIjS8_EElEERPNS_15__tree_end_nodeISA_EESB_RKT_, symObjAddr: 0xA2E8, symBinAddr: 0x10007738C, symSize: 0x1A8 }
  - { offset: 0x12FF82, size: 0x8, addend: 0x0, symName: __ZNSt3__114__split_bufferIPPN6fuzzer7FuzzJobENS_9allocatorIS4_EEE9push_backEOS4_, symObjAddr: 0x45A0, symBinAddr: 0x100075AD0, symSize: 0x178 }
  - { offset: 0x130429, size: 0x8, addend: 0x0, symName: __ZNSt3__114__split_bufferIPPN6fuzzer7FuzzJobENS_9allocatorIS4_EEE10push_frontEOS4_, symObjAddr: 0x4718, symBinAddr: 0x100075C48, symSize: 0x188 }
  - { offset: 0x130434, size: 0x8, addend: 0x0, symName: __ZNSt3__114__split_bufferIPPN6fuzzer7FuzzJobENS_9allocatorIS4_EEE10push_frontEOS4_, symObjAddr: 0x4718, symBinAddr: 0x100075C48, symSize: 0x188 }
  - { offset: 0x130CF7, size: 0x8, addend: 0x0, symName: __ZNSt3__16__treeINS_12basic_stringIcNS_11char_traitsIcEENS_9allocatorIcEEEENS_4lessIS6_EENS4_IS6_EEE12__find_equalIS6_EERPNS_16__tree_node_baseIPvEERPNS_15__tree_end_nodeISF_EERKT_, symObjAddr: 0x59F8, symBinAddr: 0x10007644C, symSize: 0x134 }
  - { offset: 0x13168B, size: 0x8, addend: 0x0, symName: __ZNK6fuzzer7Command12getFlagValueERKNSt3__112basic_stringIcNS1_11char_traitsIcEENS1_9allocatorIcEEEE, symObjAddr: 0x6EEC, symBinAddr: 0x100076734, symSize: 0x1DC }
  - { offset: 0x132743, size: 0x8, addend: 0x0, symName: __ZNSt3__119basic_istringstreamIcNS_11char_traitsIcEENS_9allocatorIcEEED1Ev, symObjAddr: 0x75BC, symBinAddr: 0x100076E04, symSize: 0x8C }
  - { offset: 0x1328F0, size: 0x8, addend: 0x0, symName: __ZNSt3__119basic_istringstreamIcNS_11char_traitsIcEENS_9allocatorIcEEED0Ev, symObjAddr: 0x7648, symBinAddr: 0x100076E90, symSize: 0x8C }
  - { offset: 0x132ABB, size: 0x8, addend: 0x0, symName: __ZTv0_n24_NSt3__119basic_istringstreamIcNS_11char_traitsIcEENS_9allocatorIcEEED1Ev, symObjAddr: 0x76D4, symBinAddr: 0x100076F1C, symSize: 0x8C }
  - { offset: 0x132C97, size: 0x8, addend: 0x0, symName: __ZTv0_n24_NSt3__119basic_istringstreamIcNS_11char_traitsIcEENS_9allocatorIcEEED0Ev, symObjAddr: 0x7760, symBinAddr: 0x100076FA8, symSize: 0x94 }
  - { offset: 0x133840, size: 0x8, addend: 0x0, symName: __ZN6fuzzerL10OutputFileE, symObjAddr: 0x6D110, symBinAddr: 0x1000E1BD8, symSize: 0x0 }
  - { offset: 0x1338AB, size: 0x8, addend: 0x0, symName: __ZN6fuzzer13GetOutputFileEv, symObjAddr: 0x0, symBinAddr: 0x1000776F0, symSize: 0xC }
  - { offset: 0x1338C9, size: 0x8, addend: 0x0, symName: __ZN6fuzzer13SetOutputFileEP7__sFILE, symObjAddr: 0xC, symBinAddr: 0x1000776FC, symSize: 0xC }
  - { offset: 0x1338F2, size: 0x8, addend: 0x0, symName: __ZN6fuzzer8GetEpochERKNSt3__112basic_stringIcNS0_11char_traitsIcEENS0_9allocatorIcEEEE, symObjAddr: 0x18, symBinAddr: 0x100077708, symSize: 0x3C }
  - { offset: 0x1339AB, size: 0x8, addend: 0x0, symName: __ZN6fuzzer12FileToVectorERKNSt3__112basic_stringIcNS0_11char_traitsIcEENS0_9allocatorIcEEEEmb, symObjAddr: 0x54, symBinAddr: 0x100077744, symSize: 0x298 }
  - { offset: 0x134039, size: 0x8, addend: 0x0, symName: __ZN6fuzzer6PrintfEPKcz, symObjAddr: 0x2EC, symBinAddr: 0x1000779DC, symSize: 0x44 }
  - { offset: 0x134044, size: 0x8, addend: 0x0, symName: __ZN6fuzzer6PrintfEPKcz, symObjAddr: 0x2EC, symBinAddr: 0x1000779DC, symSize: 0x44 }
  - { offset: 0x1340AD, size: 0x8, addend: 0x0, symName: __ZN6fuzzer12FileToStringERKNSt3__112basic_stringIcNS0_11char_traitsIcEENS0_9allocatorIcEEEE, symObjAddr: 0x390, symBinAddr: 0x100077A20, symSize: 0x1DC }
  - { offset: 0x134514, size: 0x8, addend: 0x0, symName: __ZN6fuzzer13CopyFileToErrERKNSt3__112basic_stringIcNS0_11char_traitsIcEENS0_9allocatorIcEEEE, symObjAddr: 0x56C, symBinAddr: 0x100077BFC, symSize: 0x6C }
  - { offset: 0x134754, size: 0x8, addend: 0x0, symName: __ZN6fuzzer11WriteToFileERKNSt3__16vectorIhNS0_9allocatorIhEEEERKNS0_12basic_stringIcNS0_11char_traitsIcEENS2_IcEEEE, symObjAddr: 0x5D8, symBinAddr: 0x100077C68, symSize: 0x70 }
  - { offset: 0x1348B2, size: 0x8, addend: 0x0, symName: __ZN6fuzzer11WriteToFileEPKhmRKNSt3__112basic_stringIcNS2_11char_traitsIcEENS2_9allocatorIcEEEE, symObjAddr: 0x648, symBinAddr: 0x100077CD8, symSize: 0x74 }
  - { offset: 0x1349B0, size: 0x8, addend: 0x0, symName: __ZN6fuzzer11WriteToFileERKNSt3__112basic_stringIcNS0_11char_traitsIcEENS0_9allocatorIcEEEES8_, symObjAddr: 0x6BC, symBinAddr: 0x100077D4C, symSize: 0x8C }
  - { offset: 0x134B93, size: 0x8, addend: 0x0, symName: __ZN6fuzzer12AppendToFileERKNSt3__112basic_stringIcNS0_11char_traitsIcEENS0_9allocatorIcEEEES8_, symObjAddr: 0x748, symBinAddr: 0x100077DD8, symSize: 0x8C }
  - { offset: 0x134D21, size: 0x8, addend: 0x0, symName: __ZN6fuzzer12AppendToFileEPKhmRKNSt3__112basic_stringIcNS2_11char_traitsIcEENS2_9allocatorIcEEEE, symObjAddr: 0x7D4, symBinAddr: 0x100077E64, symSize: 0x74 }
  - { offset: 0x134E49, size: 0x8, addend: 0x0, symName: __ZN6fuzzer22ReadDirToVectorOfUnitsEPKcPNSt3__16vectorINS3_IhNS2_9allocatorIhEEEENS4_IS6_EEEEPlmbPNS3_INS2_12basic_stringIcNS2_11char_traitsIcEENS4_IcEEEENS4_ISF_EEEE, symObjAddr: 0x848, symBinAddr: 0x100077ED8, symSize: 0x340 }
  - { offset: 0x135F50, size: 0x8, addend: 0x0, symName: __ZN6fuzzer20GetSizedFilesFromDirERKNSt3__112basic_stringIcNS0_11char_traitsIcEENS0_9allocatorIcEEEEPNS0_6vectorINS_9SizedFileENS4_ISA_EEEE, symObjAddr: 0xB88, symBinAddr: 0x100078218, symSize: 0x12C }
  - { offset: 0x135F7C, size: 0x8, addend: 0x0, symName: __ZN6fuzzer20GetSizedFilesFromDirERKNSt3__112basic_stringIcNS0_11char_traitsIcEENS0_9allocatorIcEEEEPNS0_6vectorINS_9SizedFileENS4_ISA_EEEE, symObjAddr: 0xB88, symBinAddr: 0x100078218, symSize: 0x12C }
  - { offset: 0x1366EC, size: 0x8, addend: 0x0, symName: __ZN6fuzzer11DirPlusFileERKNSt3__112basic_stringIcNS0_11char_traitsIcEENS0_9allocatorIcEEEES8_, symObjAddr: 0xCB4, symBinAddr: 0x100078344, symSize: 0x11C }
  - { offset: 0x136F3D, size: 0x8, addend: 0x0, symName: __ZN6fuzzer17DupAndCloseStderrEv, symObjAddr: 0xDD0, symBinAddr: 0x100078460, symSize: 0x70 }
  - { offset: 0x136F58, size: 0x8, addend: 0x0, symName: __ZN6fuzzer17DupAndCloseStderrEv, symObjAddr: 0xDD0, symBinAddr: 0x100078460, symSize: 0x70 }
  - { offset: 0x137055, size: 0x8, addend: 0x0, symName: __ZN6fuzzer11CloseStdoutEv, symObjAddr: 0xE40, symBinAddr: 0x1000784D0, symSize: 0x8 }
  - { offset: 0x137085, size: 0x8, addend: 0x0, symName: __ZN6fuzzer7VPrintfEbPKcz, symObjAddr: 0xE48, symBinAddr: 0x1000784D8, symSize: 0x44 }
  - { offset: 0x1370F6, size: 0x8, addend: 0x0, symName: __ZN6fuzzer14MkDirRecursiveERKNSt3__112basic_stringIcNS0_11char_traitsIcEENS0_9allocatorIcEEEE, symObjAddr: 0xE8C, symBinAddr: 0x10007851C, symSize: 0x60 }
  - { offset: 0x1371B3, size: 0x8, addend: 0x0, symName: __ZN6fuzzerL19MkDirRecursiveInnerERKNSt3__112basic_stringIcNS0_11char_traitsIcEENS0_9allocatorIcEEEE, symObjAddr: 0xEEC, symBinAddr: 0x10007857C, symSize: 0x100 }
  - { offset: 0x13753F, size: 0x8, addend: 0x0, symName: __ZN6fuzzer14RmDirRecursiveERKNSt3__112basic_stringIcNS0_11char_traitsIcEENS0_9allocatorIcEEEE, symObjAddr: 0xFEC, symBinAddr: 0x10007867C, symSize: 0x1C }
  - { offset: 0x137572, size: 0x8, addend: 0x0, symName: __ZN6fuzzer14RmDirRecursiveERKNSt3__112basic_stringIcNS0_11char_traitsIcEENS0_9allocatorIcEEEE, symObjAddr: 0xFEC, symBinAddr: 0x10007867C, symSize: 0x1C }
  - { offset: 0x137634, size: 0x8, addend: 0x0, symName: __ZN6fuzzer8TempPathEPKcS1_, symObjAddr: 0x1008, symBinAddr: 0x100078698, symSize: 0x1F0 }
  - { offset: 0x1484B6, size: 0x8, addend: 0x0, symName: '__ZZN6fuzzer14RmDirRecursiveERKNSt3__112basic_stringIcNS0_11char_traitsIcEENS0_9allocatorIcEEEEEN3$_08__invokeES8_', symObjAddr: 0x1EFC, symBinAddr: 0x100078888, symSize: 0x4 }
  - { offset: 0x14C504, size: 0x8, addend: 0x0, symName: __ZNSt3__16vectorINS0_IhNS_9allocatorIhEEEENS1_IS3_EEE21__push_back_slow_pathIRKS3_EEvOT_, symObjAddr: 0x202C, symBinAddr: 0x100078894, symSize: 0x2D0 }
  - { offset: 0x14DD7D, size: 0x8, addend: 0x0, symName: '__ZZN6fuzzer14RmDirRecursiveERKNSt3__112basic_stringIcNS0_11char_traitsIcEENS0_9allocatorIcEEEEEN3$_08__invokeES8_', symObjAddr: 0x1EFC, symBinAddr: 0x100078888, symSize: 0x4 }
  - { offset: 0x14DDD7, size: 0x8, addend: 0x0, symName: '__ZZN6fuzzer14RmDirRecursiveERKNSt3__112basic_stringIcNS0_11char_traitsIcEENS0_9allocatorIcEEEEEN3$_18__invokeES8_', symObjAddr: 0x1F00, symBinAddr: 0x10007888C, symSize: 0x4 }
  - { offset: 0x14DE01, size: 0x8, addend: 0x0, symName: '__ZZN6fuzzer14RmDirRecursiveERKNSt3__112basic_stringIcNS0_11char_traitsIcEENS0_9allocatorIcEEEEEN3$_18__invokeES8_', symObjAddr: 0x1F00, symBinAddr: 0x10007888C, symSize: 0x4 }
  - { offset: 0x14DE1F, size: 0x8, addend: 0x0, symName: '__ZZN6fuzzer14RmDirRecursiveERKNSt3__112basic_stringIcNS0_11char_traitsIcEENS0_9allocatorIcEEEEEN3$_18__invokeES8_', symObjAddr: 0x1F00, symBinAddr: 0x10007888C, symSize: 0x4 }
  - { offset: 0x14DE68, size: 0x8, addend: 0x0, symName: '__ZZN6fuzzer14RmDirRecursiveERKNSt3__112basic_stringIcNS0_11char_traitsIcEENS0_9allocatorIcEEEEEN3$_28__invokeES8_', symObjAddr: 0x1F04, symBinAddr: 0x100078890, symSize: 0x4 }
  - { offset: 0x14DE92, size: 0x8, addend: 0x0, symName: '__ZZN6fuzzer14RmDirRecursiveERKNSt3__112basic_stringIcNS0_11char_traitsIcEENS0_9allocatorIcEEEEEN3$_28__invokeES8_', symObjAddr: 0x1F04, symBinAddr: 0x100078890, symSize: 0x4 }
  - { offset: 0x14DEB0, size: 0x8, addend: 0x0, symName: '__ZZN6fuzzer14RmDirRecursiveERKNSt3__112basic_stringIcNS0_11char_traitsIcEENS0_9allocatorIcEEEEEN3$_28__invokeES8_', symObjAddr: 0x1F04, symBinAddr: 0x100078890, symSize: 0x4 }
  - { offset: 0x14E84C, size: 0x8, addend: 0x0, symName: __ZN6fuzzer6IsFileERKNSt3__112basic_stringIcNS0_11char_traitsIcEENS0_9allocatorIcEEEE, symObjAddr: 0x0, symBinAddr: 0x100078B7C, symSize: 0x48 }
  - { offset: 0x14E875, size: 0x8, addend: 0x0, symName: __ZN6fuzzer10getDevNullEv, symObjAddr: 0xB84, symBinAddr: 0x100079668, symSize: 0x8C }
  - { offset: 0x14E89F, size: 0x8, addend: 0x0, symName: __MergedGlobals, symObjAddr: 0x26B48, symBinAddr: 0x1000E1BE0, symSize: 0x0 }
  - { offset: 0x14E8C2, size: 0x8, addend: 0x0, symName: __ZN6fuzzer6IsFileERKNSt3__112basic_stringIcNS0_11char_traitsIcEENS0_9allocatorIcEEEE, symObjAddr: 0x0, symBinAddr: 0x100078B7C, symSize: 0x48 }
  - { offset: 0x14E97B, size: 0x8, addend: 0x0, symName: __ZN6fuzzer11IsDirectoryERKNSt3__112basic_stringIcNS0_11char_traitsIcEENS0_9allocatorIcEEEE, symObjAddr: 0x48, symBinAddr: 0x100078BC4, symSize: 0x48 }
  - { offset: 0x14EA34, size: 0x8, addend: 0x0, symName: __ZN6fuzzer8FileSizeERKNSt3__112basic_stringIcNS0_11char_traitsIcEENS0_9allocatorIcEEEE, symObjAddr: 0x90, symBinAddr: 0x100078C0C, symSize: 0x3C }
  - { offset: 0x14EB03, size: 0x8, addend: 0x0, symName: __ZN6fuzzer8BasenameERKNSt3__112basic_stringIcNS0_11char_traitsIcEENS0_9allocatorIcEEEE, symObjAddr: 0xCC, symBinAddr: 0x100078C48, symSize: 0x6C }
  - { offset: 0x14EB78, size: 0x8, addend: 0x0, symName: __ZN6fuzzer12GetSeparatorEv, symObjAddr: 0x138, symBinAddr: 0x100078CB4, symSize: 0x8 }
  - { offset: 0x14EBEA, size: 0x8, addend: 0x0, symName: __ZN6fuzzer23ListFilesInDirRecursiveERKNSt3__112basic_stringIcNS0_11char_traitsIcEENS0_9allocatorIcEEEEPlPNS0_6vectorIS6_NS4_IS6_EEEEb, symObjAddr: 0x140, symBinAddr: 0x100078CBC, symSize: 0x27C }
  - { offset: 0x14F76C, size: 0x8, addend: 0x0, symName: __ZN6fuzzer19IterateDirRecursiveERKNSt3__112basic_stringIcNS0_11char_traitsIcEENS0_9allocatorIcEEEEPFvS8_ESA_SA_, symObjAddr: 0x454, symBinAddr: 0x100078F38, symSize: 0x204 }
  - { offset: 0x150144, size: 0x8, addend: 0x0, symName: __ZN6fuzzer11IsSeparatorEc, symObjAddr: 0x658, symBinAddr: 0x10007913C, symSize: 0xC }
  - { offset: 0x15014F, size: 0x8, addend: 0x0, symName: __ZN6fuzzer11IsSeparatorEc, symObjAddr: 0x658, symBinAddr: 0x10007913C, symSize: 0xC }
  - { offset: 0x15017E, size: 0x8, addend: 0x0, symName: __ZN6fuzzer8OpenFileEiPKc, symObjAddr: 0x664, symBinAddr: 0x100079148, symSize: 0x4 }
  - { offset: 0x1501BC, size: 0x8, addend: 0x0, symName: __ZN6fuzzer8OpenFileEiPKc, symObjAddr: 0x664, symBinAddr: 0x100079148, symSize: 0x4 }
  - { offset: 0x1501D8, size: 0x8, addend: 0x0, symName: __ZN6fuzzer9CloseFileEi, symObjAddr: 0x668, symBinAddr: 0x10007914C, symSize: 0x4 }
  - { offset: 0x150208, size: 0x8, addend: 0x0, symName: __ZN6fuzzer9CloseFileEi, symObjAddr: 0x668, symBinAddr: 0x10007914C, symSize: 0x4 }
  - { offset: 0x15021C, size: 0x8, addend: 0x0, symName: __ZN6fuzzer13DuplicateFileEi, symObjAddr: 0x66C, symBinAddr: 0x100079150, symSize: 0x4 }
  - { offset: 0x15024C, size: 0x8, addend: 0x0, symName: __ZN6fuzzer13DuplicateFileEi, symObjAddr: 0x66C, symBinAddr: 0x100079150, symSize: 0x4 }
  - { offset: 0x150260, size: 0x8, addend: 0x0, symName: __ZN6fuzzer10RemoveFileERKNSt3__112basic_stringIcNS0_11char_traitsIcEENS0_9allocatorIcEEEE, symObjAddr: 0x670, symBinAddr: 0x100079154, symSize: 0x14 }
  - { offset: 0x15028E, size: 0x8, addend: 0x0, symName: __ZN6fuzzer10RemoveFileERKNSt3__112basic_stringIcNS0_11char_traitsIcEENS0_9allocatorIcEEEE, symObjAddr: 0x670, symBinAddr: 0x100079154, symSize: 0x14 }
  - { offset: 0x1502AB, size: 0x8, addend: 0x0, symName: __ZN6fuzzer10RemoveFileERKNSt3__112basic_stringIcNS0_11char_traitsIcEENS0_9allocatorIcEEEE, symObjAddr: 0x670, symBinAddr: 0x100079154, symSize: 0x14 }
  - { offset: 0x1502C9, size: 0x8, addend: 0x0, symName: __ZN6fuzzer10RemoveFileERKNSt3__112basic_stringIcNS0_11char_traitsIcEENS0_9allocatorIcEEEE, symObjAddr: 0x670, symBinAddr: 0x100079154, symSize: 0x14 }
  - { offset: 0x1502E7, size: 0x8, addend: 0x0, symName: __ZN6fuzzer10RemoveFileERKNSt3__112basic_stringIcNS0_11char_traitsIcEENS0_9allocatorIcEEEE, symObjAddr: 0x670, symBinAddr: 0x100079154, symSize: 0x14 }
  - { offset: 0x150314, size: 0x8, addend: 0x0, symName: __ZN6fuzzer10RenameFileERKNSt3__112basic_stringIcNS0_11char_traitsIcEENS0_9allocatorIcEEEES8_, symObjAddr: 0x684, symBinAddr: 0x100079168, symSize: 0x24 }
  - { offset: 0x150352, size: 0x8, addend: 0x0, symName: __ZN6fuzzer10RenameFileERKNSt3__112basic_stringIcNS0_11char_traitsIcEENS0_9allocatorIcEEEES8_, symObjAddr: 0x684, symBinAddr: 0x100079168, symSize: 0x24 }
  - { offset: 0x15036F, size: 0x8, addend: 0x0, symName: __ZN6fuzzer10RenameFileERKNSt3__112basic_stringIcNS0_11char_traitsIcEENS0_9allocatorIcEEEES8_, symObjAddr: 0x684, symBinAddr: 0x100079168, symSize: 0x24 }
  - { offset: 0x15038D, size: 0x8, addend: 0x0, symName: __ZN6fuzzer10RenameFileERKNSt3__112basic_stringIcNS0_11char_traitsIcEENS0_9allocatorIcEEEES8_, symObjAddr: 0x684, symBinAddr: 0x100079168, symSize: 0x24 }
  - { offset: 0x1503AB, size: 0x8, addend: 0x0, symName: __ZN6fuzzer10RenameFileERKNSt3__112basic_stringIcNS0_11char_traitsIcEENS0_9allocatorIcEEEES8_, symObjAddr: 0x684, symBinAddr: 0x100079168, symSize: 0x24 }
  - { offset: 0x150453, size: 0x8, addend: 0x0, symName: __ZN6fuzzer15GetHandleFromFdEi, symObjAddr: 0x6A8, symBinAddr: 0x10007918C, symSize: 0x8 }
  - { offset: 0x150482, size: 0x8, addend: 0x0, symName: __ZN6fuzzer7DirNameERKNSt3__112basic_stringIcNS0_11char_traitsIcEENS0_9allocatorIcEEEE, symObjAddr: 0x6B0, symBinAddr: 0x100079194, symSize: 0xDC }
  - { offset: 0x15098F, size: 0x8, addend: 0x0, symName: __ZN6fuzzer6TmpDirEv, symObjAddr: 0x78C, symBinAddr: 0x100079270, symSize: 0x118 }
  - { offset: 0x15099A, size: 0x8, addend: 0x0, symName: __ZN6fuzzer6TmpDirEv, symObjAddr: 0x78C, symBinAddr: 0x100079270, symSize: 0x118 }
  - { offset: 0x1510C4, size: 0x8, addend: 0x0, symName: __ZN6fuzzer25IsInterestingCoverageFileERKNSt3__112basic_stringIcNS0_11char_traitsIcEENS0_9allocatorIcEEEE, symObjAddr: 0x8A4, symBinAddr: 0x100079388, symSize: 0x288 }
  - { offset: 0x1510CF, size: 0x8, addend: 0x0, symName: __ZN6fuzzer25IsInterestingCoverageFileERKNSt3__112basic_stringIcNS0_11char_traitsIcEENS0_9allocatorIcEEEE, symObjAddr: 0x8A4, symBinAddr: 0x100079388, symSize: 0x288 }
  - { offset: 0x151956, size: 0x8, addend: 0x0, symName: __ZN6fuzzer8RawPrintEPKc, symObjAddr: 0xB2C, symBinAddr: 0x100079610, symSize: 0x2C }
  - { offset: 0x151961, size: 0x8, addend: 0x0, symName: __ZN6fuzzer8RawPrintEPKc, symObjAddr: 0xB2C, symBinAddr: 0x100079610, symSize: 0x2C }
  - { offset: 0x1519B8, size: 0x8, addend: 0x0, symName: __ZN6fuzzer5MkDirERKNSt3__112basic_stringIcNS0_11char_traitsIcEENS0_9allocatorIcEEEE, symObjAddr: 0xB58, symBinAddr: 0x10007963C, symSize: 0x18 }
  - { offset: 0x1519E6, size: 0x8, addend: 0x0, symName: __ZN6fuzzer5MkDirERKNSt3__112basic_stringIcNS0_11char_traitsIcEENS0_9allocatorIcEEEE, symObjAddr: 0xB58, symBinAddr: 0x10007963C, symSize: 0x18 }
  - { offset: 0x151A03, size: 0x8, addend: 0x0, symName: __ZN6fuzzer5MkDirERKNSt3__112basic_stringIcNS0_11char_traitsIcEENS0_9allocatorIcEEEE, symObjAddr: 0xB58, symBinAddr: 0x10007963C, symSize: 0x18 }
  - { offset: 0x151A21, size: 0x8, addend: 0x0, symName: __ZN6fuzzer5MkDirERKNSt3__112basic_stringIcNS0_11char_traitsIcEENS0_9allocatorIcEEEE, symObjAddr: 0xB58, symBinAddr: 0x10007963C, symSize: 0x18 }
  - { offset: 0x151A3F, size: 0x8, addend: 0x0, symName: __ZN6fuzzer5MkDirERKNSt3__112basic_stringIcNS0_11char_traitsIcEENS0_9allocatorIcEEEE, symObjAddr: 0xB58, symBinAddr: 0x10007963C, symSize: 0x18 }
  - { offset: 0x151A75, size: 0x8, addend: 0x0, symName: __ZN6fuzzer5RmDirERKNSt3__112basic_stringIcNS0_11char_traitsIcEENS0_9allocatorIcEEEE, symObjAddr: 0xB70, symBinAddr: 0x100079654, symSize: 0x14 }
  - { offset: 0x151AA3, size: 0x8, addend: 0x0, symName: __ZN6fuzzer5RmDirERKNSt3__112basic_stringIcNS0_11char_traitsIcEENS0_9allocatorIcEEEE, symObjAddr: 0xB70, symBinAddr: 0x100079654, symSize: 0x14 }
  - { offset: 0x151AC0, size: 0x8, addend: 0x0, symName: __ZN6fuzzer5RmDirERKNSt3__112basic_stringIcNS0_11char_traitsIcEENS0_9allocatorIcEEEE, symObjAddr: 0xB70, symBinAddr: 0x100079654, symSize: 0x14 }
  - { offset: 0x151ADE, size: 0x8, addend: 0x0, symName: __ZN6fuzzer5RmDirERKNSt3__112basic_stringIcNS0_11char_traitsIcEENS0_9allocatorIcEEEE, symObjAddr: 0xB70, symBinAddr: 0x100079654, symSize: 0x14 }
  - { offset: 0x151AFC, size: 0x8, addend: 0x0, symName: __ZN6fuzzer5RmDirERKNSt3__112basic_stringIcNS0_11char_traitsIcEENS0_9allocatorIcEEEE, symObjAddr: 0xB70, symBinAddr: 0x100079654, symSize: 0x14 }
  - { offset: 0x158E51, size: 0x8, addend: 0x0, symName: __ZN6fuzzer19IterateDirRecursiveERKNSt3__112basic_stringIcNS0_11char_traitsIcEENS0_9allocatorIcEEEEPFvS8_ESA_SA_, symObjAddr: 0x454, symBinAddr: 0x100078F38, symSize: 0x204 }
  - { offset: 0x159519, size: 0x8, addend: 0x0, symName: __ZN6fuzzer6Fuzzer10IsMyThreadE, symObjAddr: 0xB08C, symBinAddr: 0x1000ADCA0, symSize: 0x0 }
  - { offset: 0x15AD73, size: 0x8, addend: 0x0, symName: __ZN6fuzzer19RunningUserCallbackE, symObjAddr: 0x14F548, symBinAddr: 0x1000ADE90, symSize: 0x0 }
  - { offset: 0x15AD8D, size: 0x8, addend: 0x0, symName: __MergedGlobals, symObjAddr: 0x14F550, symBinAddr: 0x1000E1C00, symSize: 0x0 }
  - { offset: 0x15AE48, size: 0x8, addend: 0x0, symName: __MergedGlobals, symObjAddr: 0x14F550, symBinAddr: 0x1000E1C00, symSize: 0x0 }
  - { offset: 0x15B475, size: 0x8, addend: 0x0, symName: __ZN6fuzzer10MallocHookEPVKvm, symObjAddr: 0x28, symBinAddr: 0x10007971C, symSize: 0xD8 }
  - { offset: 0x15B674, size: 0x8, addend: 0x0, symName: __ZN6fuzzer8FreeHookEPVKv, symObjAddr: 0x18C, symBinAddr: 0x100079880, symSize: 0xB8 }
  - { offset: 0x15BA76, size: 0x8, addend: 0x0, symName: __ZN6fuzzerL20RenameFeatureSetFileERKNSt3__112basic_stringIcNS0_11char_traitsIcEENS0_9allocatorIcEEEES8_S8_, symObjAddr: 0x29E4, symBinAddr: 0x10007C0D8, symSize: 0x9C }
  - { offset: 0x15BE65, size: 0x8, addend: 0x0, symName: '__ZN6fuzzer18ForEachNonZeroByteIZNKS_7TracePC15CollectFeaturesIZNS_6Fuzzer6RunOneEPKhmbPNS_9InputInfoEbPbE3$_0EEmT_EUlmmhE_EEmS5_S5_mSA_', symObjAddr: 0x7F28, symBinAddr: 0x10007F640, symSize: 0xAF4 }
  - { offset: 0x175121, size: 0x8, addend: 0x0, symName: __ZNSt3__113__stable_sortINS_17_ClassicAlgPolicyERNS_6__lessIN6fuzzer9SizedFileES4_EENS_11__wrap_iterIPS4_EEEEvT1_SA_T0_NS_15iterator_traitsISA_E15difference_typeEPNSD_10value_typeEl, symObjAddr: 0x9E6C, symBinAddr: 0x100081584, symSize: 0x2D0 }
  - { offset: 0x175C45, size: 0x8, addend: 0x0, symName: __ZNSt3__124__buffered_inplace_mergeB7v160000INS_17_ClassicAlgPolicyERNS_6__lessIN6fuzzer9SizedFileES4_EENS_11__wrap_iterIPS4_EEEEvT1_SA_SA_OT0_NS_15iterator_traitsISA_E15difference_typeESF_PNSE_10value_typeE, symObjAddr: 0xAA5C, symBinAddr: 0x100082174, symSize: 0x330 }
  - { offset: 0x17CA39, size: 0x8, addend: 0x0, symName: __ZNSt3__115__inplace_mergeINS_17_ClassicAlgPolicyERNS_6__lessIN6fuzzer9SizedFileES4_EENS_11__wrap_iterIPS4_EEEEvT1_SA_SA_OT0_NS_15iterator_traitsISA_E15difference_typeESF_PNSE_10value_typeEl, symObjAddr: 0xA574, symBinAddr: 0x100081C8C, symSize: 0x340 }
  - { offset: 0x17D454, size: 0x8, addend: 0x0, symName: __ZNSt3__118__stable_sort_moveINS_17_ClassicAlgPolicyERNS_6__lessIN6fuzzer9SizedFileES4_EENS_11__wrap_iterIPS4_EEEEvT1_SA_T0_NS_15iterator_traitsISA_E15difference_typeEPNSD_10value_typeE, symObjAddr: 0xA13C, symBinAddr: 0x100081854, symSize: 0x2B0 }
  - { offset: 0x17DDCF, size: 0x8, addend: 0x0, symName: __ZNSt3__119__merge_move_assignB7v160000INS_17_ClassicAlgPolicyERNS_6__lessIN6fuzzer9SizedFileES4_EEPS4_S7_NS_11__wrap_iterIS7_EEEEvT1_SA_T2_SB_T3_T0_, symObjAddr: 0xA3EC, symBinAddr: 0x100081B04, symSize: 0x188 }
  - { offset: 0x17E616, size: 0x8, addend: 0x0, symName: __ZNSt3__121__insertion_sort_moveB7v160000INS_17_ClassicAlgPolicyERNS_6__lessIN6fuzzer9SizedFileES4_EENS_11__wrap_iterIPS4_EEEEvT1_SA_PNS_15iterator_traitsISA_E10value_typeET0_, symObjAddr: 0xA8B4, symBinAddr: 0x100081FCC, symSize: 0x1A8 }
  - { offset: 0x17F15C, size: 0x8, addend: 0x0, symName: __ZNSt3__116__rotate_forwardB7v160000INS_17_ClassicAlgPolicyENS_11__wrap_iterIPN6fuzzer9SizedFileEEEEET0_S7_S7_S7_, symObjAddr: 0xAD8C, symBinAddr: 0x1000824A4, symSize: 0x228 }
  - { offset: 0x17FEDF, size: 0x8, addend: 0x0, symName: __ZNSt3__16vectorIhNS_9allocatorIhEEE6assignIPhLi0EEEvT_S6_, symObjAddr: 0x5230, symBinAddr: 0x10007DBA4, symSize: 0x1E8 }
  - { offset: 0x181300, size: 0x8, addend: 0x0, symName: __ZN6fuzzer6Fuzzer23CheckExitOnSrcPosOrItemEv, symObjAddr: 0x14A8, symBinAddr: 0x10007AB9C, symSize: 0x324 }
  - { offset: 0x181328, size: 0x8, addend: 0x0, symName: __MergedGlobals, symObjAddr: 0x14F550, symBinAddr: 0x1000E1C00, symSize: 0x0 }
  - { offset: 0x181E4C, size: 0x8, addend: 0x0, symName: __ZN6fuzzer6Fuzzer18RereadOutputCorpusEm, symObjAddr: 0x17CC, symBinAddr: 0x10007AEC0, symSize: 0x2B0 }
  - { offset: 0x1826AA, size: 0x8, addend: 0x0, symName: __ZNSt3__124uniform_int_distributionIlEclIN6fuzzer6RandomEEElRT_RKNS1_10param_typeE, symObjAddr: 0x9AF0, symBinAddr: 0x100081208, symSize: 0x37C }
  - { offset: 0x184A1E, size: 0x8, addend: 0x0, symName: __ZN6fuzzer16MallocFreeTracerD1Ev, symObjAddr: 0x0, symBinAddr: 0x1000796F4, symSize: 0x28 }
  - { offset: 0x184BA8, size: 0x8, addend: 0x0, symName: __ZN6fuzzer6Fuzzer12HandleMallocEm, symObjAddr: 0x100, symBinAddr: 0x1000797F4, symSize: 0x8C }
  - { offset: 0x184C56, size: 0x8, addend: 0x0, symName: __ZN6fuzzer8FreeHookEPVKv, symObjAddr: 0x18C, symBinAddr: 0x100079880, symSize: 0xB8 }
  - { offset: 0x184C61, size: 0x8, addend: 0x0, symName: __ZN6fuzzer6Fuzzer15DumpCurrentUnitEPKc, symObjAddr: 0x244, symBinAddr: 0x100079938, symSize: 0x1E4 }
  - { offset: 0x1853CC, size: 0x8, addend: 0x0, symName: __ZN6fuzzer6Fuzzer15PrintFinalStatsEv, symObjAddr: 0x428, symBinAddr: 0x100079B1C, symSize: 0x1A4 }
  - { offset: 0x1853D7, size: 0x8, addend: 0x0, symName: __ZN6fuzzer6Fuzzer15PrintFinalStatsEv, symObjAddr: 0x428, symBinAddr: 0x100079B1C, symSize: 0x1A4 }
  - { offset: 0x185D80, size: 0x8, addend: 0x0, symName: __ZN6fuzzer6Fuzzer25WriteUnitToFileWithPrefixERKNSt3__16vectorIhNS1_9allocatorIhEEEEPKc, symObjAddr: 0x99C, symBinAddr: 0x10007A090, symSize: 0x248 }
  - { offset: 0x186CED, size: 0x8, addend: 0x0, symName: __ZN6fuzzer6Fuzzer19StaticAlarmCallbackEv, symObjAddr: 0xBE4, symBinAddr: 0x10007A2D8, symSize: 0xC }
  - { offset: 0x18793A, size: 0x8, addend: 0x0, symName: __ZN6fuzzer6FuzzerC2EPFiPKhmERNS_11InputCorpusERNS_18MutationDispatcherENS_14FuzzingOptionsE, symObjAddr: 0x5CC, symBinAddr: 0x100079CC0, symSize: 0x2AC }
  - { offset: 0x1883D7, size: 0x8, addend: 0x0, symName: __ZN6fuzzer6Fuzzer19StaticDeathCallbackEv, symObjAddr: 0x878, symBinAddr: 0x100079F6C, symSize: 0x34 }
  - { offset: 0x188432, size: 0x8, addend: 0x0, symName: __ZN6fuzzer6Fuzzer23AllocateCurrentUnitDataEv, symObjAddr: 0x8AC, symBinAddr: 0x100079FA0, symSize: 0x40 }
  - { offset: 0x188455, size: 0x8, addend: 0x0, symName: __ZN6fuzzer6FuzzerC1EPFiPKhmERNS_11InputCorpusERNS_18MutationDispatcherENS_14FuzzingOptionsE, symObjAddr: 0x8EC, symBinAddr: 0x100079FE0, symSize: 0x4 }
  - { offset: 0x1884BC, size: 0x8, addend: 0x0, symName: __ZN6fuzzer6FuzzerC1EPFiPKhmERNS_11InputCorpusERNS_18MutationDispatcherENS_14FuzzingOptionsE, symObjAddr: 0x8EC, symBinAddr: 0x100079FE0, symSize: 0x4 }
  - { offset: 0x18861F, size: 0x8, addend: 0x0, symName: __ZN6fuzzer6FuzzerD2Ev, symObjAddr: 0x8F0, symBinAddr: 0x100079FE4, symSize: 0x40 }
  - { offset: 0x1887E9, size: 0x8, addend: 0x0, symName: __ZN6fuzzer13DataFlowTraceD2Ev, symObjAddr: 0x4390, symBinAddr: 0x10007DA84, symSize: 0x120 }
  - { offset: 0x18A1A3, size: 0x8, addend: 0x0, symName: __ZN6fuzzer6FuzzerD1Ev, symObjAddr: 0x930, symBinAddr: 0x10007A024, symSize: 0x40 }
  - { offset: 0x18A395, size: 0x8, addend: 0x0, symName: __ZN6fuzzer6Fuzzer13DeathCallbackEv, symObjAddr: 0x970, symBinAddr: 0x10007A064, symSize: 0x2C }
  - { offset: 0x18A6C1, size: 0x8, addend: 0x0, symName: __ZN6fuzzer6Fuzzer19StaticAlarmCallbackEv, symObjAddr: 0xBE4, symBinAddr: 0x10007A2D8, symSize: 0xC }
  - { offset: 0x18A6E6, size: 0x8, addend: 0x0, symName: __ZN6fuzzer6Fuzzer13AlarmCallbackEv, symObjAddr: 0xBF0, symBinAddr: 0x10007A2E4, symSize: 0x128 }
  - { offset: 0x18A841, size: 0x8, addend: 0x0, symName: __ZN6fuzzer6Fuzzer25StaticCrashSignalCallbackEv, symObjAddr: 0xD18, symBinAddr: 0x10007A40C, symSize: 0xC }
  - { offset: 0x18A867, size: 0x8, addend: 0x0, symName: __ZN6fuzzer6Fuzzer25StaticCrashSignalCallbackEv, symObjAddr: 0xD18, symBinAddr: 0x10007A40C, symSize: 0xC }
  - { offset: 0x18A88C, size: 0x8, addend: 0x0, symName: __ZN6fuzzer6Fuzzer13CrashCallbackEv, symObjAddr: 0xD24, symBinAddr: 0x10007A418, symSize: 0x90 }
  - { offset: 0x18A936, size: 0x8, addend: 0x0, symName: __ZN6fuzzer6Fuzzer18StaticExitCallbackEv, symObjAddr: 0xDB4, symBinAddr: 0x10007A4A8, symSize: 0xC }
  - { offset: 0x18A941, size: 0x8, addend: 0x0, symName: __ZN6fuzzer6Fuzzer18StaticExitCallbackEv, symObjAddr: 0xDB4, symBinAddr: 0x10007A4A8, symSize: 0xC }
  - { offset: 0x18A966, size: 0x8, addend: 0x0, symName: __ZN6fuzzer6Fuzzer12ExitCallbackEv, symObjAddr: 0xDC0, symBinAddr: 0x10007A4B4, symSize: 0x90 }
  - { offset: 0x18AA02, size: 0x8, addend: 0x0, symName: __ZN6fuzzer6Fuzzer23StaticInterruptCallbackEv, symObjAddr: 0xE50, symBinAddr: 0x10007A544, symSize: 0x14 }
  - { offset: 0x18AA0D, size: 0x8, addend: 0x0, symName: __ZN6fuzzer6Fuzzer23StaticInterruptCallbackEv, symObjAddr: 0xE50, symBinAddr: 0x10007A544, symSize: 0x14 }
  - { offset: 0x18AA27, size: 0x8, addend: 0x0, symName: __ZN6fuzzer6Fuzzer17InterruptCallbackEv, symObjAddr: 0xE64, symBinAddr: 0x10007A558, symSize: 0x78 }
  - { offset: 0x18AA32, size: 0x8, addend: 0x0, symName: __ZN6fuzzer6Fuzzer17InterruptCallbackEv, symObjAddr: 0xE64, symBinAddr: 0x10007A558, symSize: 0x78 }
  - { offset: 0x18AB02, size: 0x8, addend: 0x0, symName: __ZN6fuzzer6Fuzzer26StaticGracefulExitCallbackEv, symObjAddr: 0xEDC, symBinAddr: 0x10007A5D0, symSize: 0x1C }
  - { offset: 0x18AB0D, size: 0x8, addend: 0x0, symName: __ZN6fuzzer6Fuzzer26StaticGracefulExitCallbackEv, symObjAddr: 0xEDC, symBinAddr: 0x10007A5D0, symSize: 0x1C }
  - { offset: 0x18AB32, size: 0x8, addend: 0x0, symName: __ZN6fuzzer6Fuzzer28StaticFileSizeExceedCallbackEv, symObjAddr: 0xEF8, symBinAddr: 0x10007A5EC, symSize: 0x28 }
  - { offset: 0x18AB68, size: 0x8, addend: 0x0, symName: __ZN6fuzzer6Fuzzer19MaybeExitGracefullyEv, symObjAddr: 0xF20, symBinAddr: 0x10007A614, symSize: 0x80 }
  - { offset: 0x18AB88, size: 0x8, addend: 0x0, symName: __ZN6fuzzer6Fuzzer19MaybeExitGracefullyEv, symObjAddr: 0xF20, symBinAddr: 0x10007A614, symSize: 0x80 }
  - { offset: 0x18ABF9, size: 0x8, addend: 0x0, symName: __ZN6fuzzer6Fuzzer17InterruptExitCodeEv, symObjAddr: 0xFA0, symBinAddr: 0x10007A694, symSize: 0x10 }
  - { offset: 0x18AC0B, size: 0x8, addend: 0x0, symName: __ZN6fuzzer6Fuzzer17InterruptExitCodeEv, symObjAddr: 0xFA0, symBinAddr: 0x10007A694, symSize: 0x10 }
  - { offset: 0x18AC22, size: 0x8, addend: 0x0, symName: __ZN6fuzzer6Fuzzer16RssLimitCallbackEv, symObjAddr: 0xFB0, symBinAddr: 0x10007A6A4, symSize: 0xA0 }
  - { offset: 0x18ACDB, size: 0x8, addend: 0x0, symName: __ZN6fuzzer6Fuzzer10PrintStatsEPKcS2_mm, symObjAddr: 0x1050, symBinAddr: 0x10007A744, symSize: 0x3F8 }
  - { offset: 0x18AE89, size: 0x8, addend: 0x0, symName: __ZN6fuzzer6Fuzzer10PrintStatsEPKcS2_mm, symObjAddr: 0x1050, symBinAddr: 0x10007A744, symSize: 0x3F8 }
  - { offset: 0x18B2B3, size: 0x8, addend: 0x0, symName: __ZN6fuzzer6Fuzzer14SetMaxInputLenEm, symObjAddr: 0x1448, symBinAddr: 0x10007AB3C, symSize: 0x58 }
  - { offset: 0x18B30F, size: 0x8, addend: 0x0, symName: __ZN6fuzzer6Fuzzer17SetMaxMutationLenEm, symObjAddr: 0x14A0, symBinAddr: 0x10007AB94, symSize: 0x8 }
  - { offset: 0x18C13E, size: 0x8, addend: 0x0, symName: __ZN6fuzzer6Fuzzer18RereadOutputCorpusEm, symObjAddr: 0x17CC, symBinAddr: 0x10007AEC0, symSize: 0x2B0 }
  - { offset: 0x18CD71, size: 0x8, addend: 0x0, symName: __ZN6fuzzer6Fuzzer6RunOneEPKhmbPNS_9InputInfoEbPb, symObjAddr: 0x1A7C, symBinAddr: 0x10007B170, symSize: 0x454 }
  - { offset: 0x18E5B5, size: 0x8, addend: 0x0, symName: __ZN6fuzzer6Fuzzer28PrintPulseAndReportSlowInputEPKhm, symObjAddr: 0x1ED0, symBinAddr: 0x10007B5C4, symSize: 0x154 }
  - { offset: 0x18E7A4, size: 0x8, addend: 0x0, symName: __ZN6fuzzer6Fuzzer15ExecuteCallbackEPKhm, symObjAddr: 0x208C, symBinAddr: 0x10007B780, symSize: 0x280 }
  - { offset: 0x18F015, size: 0x8, addend: 0x0, symName: '__ZNK6fuzzer7TracePC15CollectFeaturesIZNS_6Fuzzer6RunOneEPKhmbPNS_9InputInfoEbPbE3$_0EEmT_', symObjAddr: 0x230C, symBinAddr: 0x10007BA00, symSize: 0x1EC }
  - { offset: 0x18F025, size: 0x8, addend: 0x0, symName: '__ZNK6fuzzer7TracePC15CollectFeaturesIZNS_6Fuzzer6RunOneEPKhmbPNS_9InputInfoEbPbE3$_0EEmT_', symObjAddr: 0x230C, symBinAddr: 0x10007BA00, symSize: 0x1EC }
  - { offset: 0x18F2F4, size: 0x8, addend: 0x0, symName: __ZN6fuzzer6Fuzzer28PrintPulseAndReportSlowInputEPKhm, symObjAddr: 0x1ED0, symBinAddr: 0x10007B5C4, symSize: 0x154 }
  - { offset: 0x18F9F9, size: 0x8, addend: 0x0, symName: __ZNSt3__16vectorIhNS_9allocatorIhEEEC1IPKhLi0EEET_S7_, symObjAddr: 0x2024, symBinAddr: 0x10007B718, symSize: 0x68 }
  - { offset: 0x18FA04, size: 0x8, addend: 0x0, symName: __ZN6fuzzer11InputCorpus11AddToCorpusERKNSt3__16vectorIhNS1_9allocatorIhEEEEmbbbNS1_6chrono8durationIxNS1_5ratioILl1ELl1000000EEEEERKNS2_IjNS3_IjEEEERKNS_13DataFlowTraceEPKNS_9InputInfoE, symObjAddr: 0x24F8, symBinAddr: 0x10007BBEC, symSize: 0x328 }
  - { offset: 0x1904B6, size: 0x8, addend: 0x0, symName: __ZN6fuzzer11InputCorpus7ReplaceEPNS_9InputInfoERKNSt3__16vectorIhNS3_9allocatorIhEEEENS3_6chrono8durationIxNS3_5ratioILl1ELl1000000EEEEE, symObjAddr: 0x2820, symBinAddr: 0x10007BF14, symSize: 0x1C4 }
  - { offset: 0x1904C1, size: 0x8, addend: 0x0, symName: __ZNSt3__16vectorIhNS_9allocatorIhEEEC1IPKhLi0EEET_S7_, symObjAddr: 0x2024, symBinAddr: 0x10007B718, symSize: 0x68 }
  - { offset: 0x19086D, size: 0x8, addend: 0x0, symName: __ZN6fuzzer6Fuzzer15ExecuteCallbackEPKhm, symObjAddr: 0x208C, symBinAddr: 0x10007B780, symSize: 0x280 }
  - { offset: 0x190878, size: 0x8, addend: 0x0, symName: __ZN6fuzzer11InputCorpus7ReplaceEPNS_9InputInfoERKNSt3__16vectorIhNS3_9allocatorIhEEEENS3_6chrono8durationIxNS3_5ratioILl1ELl1000000EEEEE, symObjAddr: 0x2820, symBinAddr: 0x10007BF14, symSize: 0x1C4 }
  - { offset: 0x1914E5, size: 0x8, addend: 0x0, symName: '__ZZN6fuzzer6Fuzzer6RunOneEPKhmbPNS_9InputInfoEbPbENK3$_0clEj', symObjAddr: 0x8A1C, symBinAddr: 0x100080134, symSize: 0x368 }
  - { offset: 0x191E0B, size: 0x8, addend: 0x0, symName: __ZN6fuzzer11InputCorpus11DeleteInputEm, symObjAddr: 0x8D84, symBinAddr: 0x10008049C, symSize: 0xFC }
  - { offset: 0x1923C2, size: 0x8, addend: 0x0, symName: __ZNSt3__16vectorIhNS_9allocatorIhEEE6assignIPhLi0EEEvT_S6_, symObjAddr: 0x5230, symBinAddr: 0x10007DBA4, symSize: 0x1E8 }
  - { offset: 0x192A75, size: 0x8, addend: 0x0, symName: __ZNSt3__16vectorIjNS_9allocatorIjEEE6assignIPjLi0EEEvT_S6_, symObjAddr: 0x5418, symBinAddr: 0x10007DD8C, symSize: 0x214 }
  - { offset: 0x192A91, size: 0x8, addend: 0x0, symName: __ZNSt3__16vectorIjNS_9allocatorIjEEE6assignIPjLi0EEEvT_S6_, symObjAddr: 0x5418, symBinAddr: 0x10007DD8C, symSize: 0x214 }
  - { offset: 0x193146, size: 0x8, addend: 0x0, symName: __ZNSt3__112__hash_tableINS_12basic_stringIcNS_11char_traitsIcEENS_9allocatorIcEEEENS_4hashIS6_EENS_8equal_toIS6_EENS4_IS6_EEE25__emplace_unique_key_argsIS6_JRKS6_EEENS_4pairINS_15__hash_iteratorIPNS_11__hash_nodeIS6_PvEEEEbEERKT_DpOT0_, symObjAddr: 0x562C, symBinAddr: 0x10007DFA0, symSize: 0x438 }
  - { offset: 0x193162, size: 0x8, addend: 0x0, symName: __ZNSt3__112__hash_tableINS_12basic_stringIcNS_11char_traitsIcEENS_9allocatorIcEEEENS_4hashIS6_EENS_8equal_toIS6_EENS4_IS6_EEE25__emplace_unique_key_argsIS6_JRKS6_EEENS_4pairINS_15__hash_iteratorIPNS_11__hash_nodeIS6_PvEEEEbEERKT_DpOT0_, symObjAddr: 0x562C, symBinAddr: 0x10007DFA0, symSize: 0x438 }
  - { offset: 0x1938E4, size: 0x8, addend: 0x0, symName: __ZNKSt3__112__hash_tableINS_17__hash_value_typeINS_12basic_stringIcNS_11char_traitsIcEENS_9allocatorIcEEEENS_6vectorIhNS5_IhEEEEEENS_22__unordered_map_hasherIS7_SB_NS_4hashIS7_EENS_8equal_toIS7_EELb1EEENS_21__unordered_map_equalIS7_SB_SG_SE_Lb1EEENS5_ISB_EEE4findIS7_EENS_21__hash_const_iteratorIPNS_11__hash_nodeISB_PvEEEERKT_, symObjAddr: 0x5C3C, symBinAddr: 0x10007E3D8, symSize: 0x270 }
  - { offset: 0x193F14, size: 0x8, addend: 0x0, symName: __ZNSt3__112__hash_tableINS_12basic_stringIcNS_11char_traitsIcEENS_9allocatorIcEEEENS_4hashIS6_EENS_8equal_toIS6_EENS4_IS6_EEE4findIS6_EENS_15__hash_iteratorIPNS_11__hash_nodeIS6_PvEEEERKT_, symObjAddr: 0x5EAC, symBinAddr: 0x10007E648, symSize: 0x270 }
  - { offset: 0x1942D3, size: 0x8, addend: 0x0, symName: __ZNSt3__112__hash_tableINS_12basic_stringIcNS_11char_traitsIcEENS_9allocatorIcEEEENS_4hashIS6_EENS_8equal_toIS6_EENS4_IS6_EEE6removeENS_21__hash_const_iteratorIPNS_11__hash_nodeIS6_PvEEEE, symObjAddr: 0x611C, symBinAddr: 0x10007E8B8, symSize: 0x134 }
  - { offset: 0x19434E, size: 0x8, addend: 0x0, symName: __ZNSt3__112__hash_tableINS_12basic_stringIcNS_11char_traitsIcEENS_9allocatorIcEEEENS_4hashIS6_EENS_8equal_toIS6_EENS4_IS6_EEE6removeENS_21__hash_const_iteratorIPNS_11__hash_nodeIS6_PvEEEE, symObjAddr: 0x611C, symBinAddr: 0x10007E8B8, symSize: 0x134 }
  - { offset: 0x19436C, size: 0x8, addend: 0x0, symName: __ZNSt3__112__hash_tableINS_12basic_stringIcNS_11char_traitsIcEENS_9allocatorIcEEEENS_4hashIS6_EENS_8equal_toIS6_EENS4_IS6_EEE6removeENS_21__hash_const_iteratorIPNS_11__hash_nodeIS6_PvEEEE, symObjAddr: 0x611C, symBinAddr: 0x10007E8B8, symSize: 0x134 }
  - { offset: 0x194ACE, size: 0x8, addend: 0x0, symName: __ZN6fuzzer6Fuzzer20TPCUpdateObservedPCsEv, symObjAddr: 0x2A80, symBinAddr: 0x10007C174, symSize: 0xC }
  - { offset: 0x194AF8, size: 0x8, addend: 0x0, symName: __ZNK6fuzzer6Fuzzer28GetCurrentUnitInFuzzingTheadEPPKh, symObjAddr: 0x2A8C, symBinAddr: 0x10007C180, symSize: 0x10 }
  - { offset: 0x194B9C, size: 0x8, addend: 0x0, symName: __ZN6fuzzer6Fuzzer22CrashOnOverwrittenDataEv, symObjAddr: 0x2A9C, symBinAddr: 0x10007C190, symSize: 0x58 }
  - { offset: 0x194C26, size: 0x8, addend: 0x0, symName: __ZN6fuzzer6Fuzzer19WriteToOutputCorpusERKNSt3__16vectorIhNS1_9allocatorIhEEEE, symObjAddr: 0x2AF4, symBinAddr: 0x10007C1E8, symSize: 0x15C }
  - { offset: 0x194CFA, size: 0x8, addend: 0x0, symName: __ZN6fuzzer6Fuzzer19WriteToOutputCorpusERKNSt3__16vectorIhNS1_9allocatorIhEEEE, symObjAddr: 0x2AF4, symBinAddr: 0x10007C1E8, symSize: 0x15C }
  - { offset: 0x195334, size: 0x8, addend: 0x0, symName: __ZN6fuzzer6Fuzzer21PrintStatusForNewUnitERKNSt3__16vectorIhNS1_9allocatorIhEEEEPKc, symObjAddr: 0x2C50, symBinAddr: 0x10007C344, symSize: 0x180 }
  - { offset: 0x195391, size: 0x8, addend: 0x0, symName: __ZN6fuzzer6Fuzzer21PrintStatusForNewUnitERKNSt3__16vectorIhNS1_9allocatorIhEEEEPKc, symObjAddr: 0x2C50, symBinAddr: 0x10007C344, symSize: 0x180 }
  - { offset: 0x1954AE, size: 0x8, addend: 0x0, symName: __ZN6fuzzer6Fuzzer17ReportNewCoverageEPNS_9InputInfoERKNSt3__16vectorIhNS3_9allocatorIhEEEE, symObjAddr: 0x2DD0, symBinAddr: 0x10007C4C4, symSize: 0xAC }
  - { offset: 0x195675, size: 0x8, addend: 0x0, symName: __ZN6fuzzer6Fuzzer23TryDetectingAMemoryLeakEPKhmb, symObjAddr: 0x2E7C, symBinAddr: 0x10007C570, symSize: 0x124 }
  - { offset: 0x1957DA, size: 0x8, addend: 0x0, symName: __ZN6fuzzer6Fuzzer16MutateAndTestOneEv, symObjAddr: 0x2FA0, symBinAddr: 0x10007C694, symSize: 0x4BC }
  - { offset: 0x195A13, size: 0x8, addend: 0x0, symName: __ZN6fuzzer6Fuzzer16MutateAndTestOneEv, symObjAddr: 0x2FA0, symBinAddr: 0x10007C694, symSize: 0x4BC }
  - { offset: 0x196581, size: 0x8, addend: 0x0, symName: __ZN6fuzzer6Fuzzer14PurgeAllocatorEv, symObjAddr: 0x345C, symBinAddr: 0x10007CB50, symSize: 0x9C }
  - { offset: 0x19658C, size: 0x8, addend: 0x0, symName: __ZN6fuzzer11InputCorpus21ChooseUnitIdxToMutateERNS_6RandomE, symObjAddr: 0x6694, symBinAddr: 0x10007E9EC, symSize: 0x120 }
  - { offset: 0x196AC3, size: 0x8, addend: 0x0, symName: __ZN6fuzzer6Fuzzer14PurgeAllocatorEv, symObjAddr: 0x345C, symBinAddr: 0x10007CB50, symSize: 0x9C }
  - { offset: 0x197202, size: 0x8, addend: 0x0, symName: __ZN6fuzzer6Fuzzer25ReadAndExecuteSeedCorporaERNSt3__16vectorINS_9SizedFileENS1_9allocatorIS3_EEEE, symObjAddr: 0x34F8, symBinAddr: 0x10007CBEC, symSize: 0x7A8 }
  - { offset: 0x198E28, size: 0x8, addend: 0x0, symName: __ZN6fuzzer6Fuzzer4LoopERNSt3__16vectorINS_9SizedFileENS1_9allocatorIS3_EEEE, symObjAddr: 0x3CA0, symBinAddr: 0x10007D394, symSize: 0x3F4 }
  - { offset: 0x199B28, size: 0x8, addend: 0x0, symName: __ZN6fuzzer6Fuzzer17MinimizeCrashLoopERKNSt3__16vectorIhNS1_9allocatorIhEEEE, symObjAddr: 0x4094, symBinAddr: 0x10007D788, symSize: 0x2E0 }
  - { offset: 0x19A55B, size: 0x8, addend: 0x0, symName: _LLVMFuzzerMutate, symObjAddr: 0x4374, symBinAddr: 0x10007DA68, symSize: 0x1C }
  - { offset: 0x19A57C, size: 0x8, addend: 0x0, symName: _LLVMFuzzerMutate, symObjAddr: 0x4374, symBinAddr: 0x10007DA68, symSize: 0x1C }
  - { offset: 0x19C5E3, size: 0x8, addend: 0x0, symName: __ZNKSt3__112__hash_tableINS_17__hash_value_typeINS_12basic_stringIcNS_11char_traitsIcEENS_9allocatorIcEEEENS_6vectorIhNS5_IhEEEEEENS_22__unordered_map_hasherIS7_SB_NS_4hashIS7_EENS_8equal_toIS7_EELb1EEENS_21__unordered_map_equalIS7_SB_SG_SE_Lb1EEENS5_ISB_EEE4findIS7_EENS_21__hash_const_iteratorIPNS_11__hash_nodeISB_PvEEEERKT_, symObjAddr: 0x5C3C, symBinAddr: 0x10007E3D8, symSize: 0x270 }
  - { offset: 0x19CB46, size: 0x8, addend: 0x0, symName: __ZN6fuzzer11InputCorpus24UpdateCorpusDistributionERNS_6RandomE, symObjAddr: 0x67B4, symBinAddr: 0x10007EB0C, symSize: 0x458 }
  - { offset: 0x19DBBE, size: 0x8, addend: 0x0, symName: __ZN6fuzzer9InputInfo12UpdateEnergyEmbNSt3__16chrono8durationIxNS1_5ratioILl1ELl1000000EEEEE, symObjAddr: 0x6C0C, symBinAddr: 0x10007EF64, symSize: 0x180 }
  - { offset: 0x19E55C, size: 0x8, addend: 0x0, symName: __ZNSt3__131piecewise_constant_distributionIdE10param_typeaSERKS2_, symObjAddr: 0x7818, symBinAddr: 0x10007F0E4, symSize: 0x348 }
  - { offset: 0x19F0D9, size: 0x8, addend: 0x0, symName: __ZNSt3__16vectorIdNS_9allocatorIdEEE6assignIPdLi0EEEvT_S6_, symObjAddr: 0x7B60, symBinAddr: 0x10007F42C, symSize: 0x214 }
  - { offset: 0x19FF23, size: 0x8, addend: 0x0, symName: __ZNSt3__16vectorIdNS_9allocatorIdEEE6assignIPdLi0EEEvT_S6_, symObjAddr: 0x7B60, symBinAddr: 0x10007F42C, symSize: 0x214 }
  - { offset: 0x1A0BC7, size: 0x8, addend: 0x0, symName: __ZN6fuzzer11InputCorpus11DeleteInputEm, symObjAddr: 0x8D84, symBinAddr: 0x10008049C, symSize: 0xFC }
  - { offset: 0x1A1091, size: 0x8, addend: 0x0, symName: __ZN6fuzzer11InputCorpus14AddRareFeatureEj, symObjAddr: 0x8E80, symBinAddr: 0x100080598, symSize: 0x538 }
  - { offset: 0x1A1F01, size: 0x8, addend: 0x0, symName: __ZN6fuzzer9InputInfo22UpdateFeatureFrequencyEj, symObjAddr: 0x93B8, symBinAddr: 0x100080AD0, symSize: 0x1FC }
  - { offset: 0x1A1F0C, size: 0x8, addend: 0x0, symName: __ZN6fuzzer9InputInfo22UpdateFeatureFrequencyEj, symObjAddr: 0x93B8, symBinAddr: 0x100080AD0, symSize: 0x1FC }
  - { offset: 0x1A258B, size: 0x8, addend: 0x0, symName: __ZNSt3__16vectorINS_4pairIjtEENS_9allocatorIS2_EEE6insertENS_11__wrap_iterIPKS2_EEOS2_, symObjAddr: 0x95B4, symBinAddr: 0x100080CCC, symSize: 0x3A0 }
  - { offset: 0x1A2C34, size: 0x8, addend: 0x0, symName: __ZNSt3__16vectorINS_4pairIjtEENS_9allocatorIS2_EEE6insertENS_11__wrap_iterIPKS2_EEOS2_, symObjAddr: 0x95B4, symBinAddr: 0x100080CCC, symSize: 0x3A0 }
  - { offset: 0x1A34C6, size: 0x8, addend: 0x0, symName: __ZNSt3__114__split_bufferINS_4pairIjtEERNS_9allocatorIS2_EEE9push_backEOS2_, symObjAddr: 0x9954, symBinAddr: 0x10008106C, symSize: 0x19C }
  - { offset: 0x1A3751, size: 0x8, addend: 0x0, symName: __ZNSt3__114__split_bufferINS_4pairIjtEERNS_9allocatorIS2_EEE9push_backEOS2_, symObjAddr: 0x9954, symBinAddr: 0x10008106C, symSize: 0x19C }
  - { offset: 0x1A3BA7, size: 0x8, addend: 0x0, symName: __ZNSt3__124uniform_int_distributionIlEclIN6fuzzer6RandomEEElRT_RKNS1_10param_typeE, symObjAddr: 0x9AF0, symBinAddr: 0x100081208, symSize: 0x37C }
  - { offset: 0x1A4228, size: 0x8, addend: 0x0, symName: __ZN6fuzzer6Merger5ParseERKNSt3__112basic_stringIcNS1_11char_traitsIcEENS1_9allocatorIcEEEEb, symObjAddr: 0x0, symBinAddr: 0x100082730, symSize: 0x128 }
  - { offset: 0x1B50D6, size: 0x8, addend: 0x0, symName: '__ZNSt3__111__introsortINS_17_ClassicAlgPolicyERZN6fuzzer6Merger5MergeERKNS_3setIjNS_4lessIjEENS_9allocatorIjEEEEPS9_SB_SC_PNS_6vectorINS_12basic_stringIcNS_11char_traitsIcEENS7_IcEEEENS7_ISI_EEEEE3$_0PNS2_13MergeFileInfoELb0EEEvT1_SQ_T0_NS_15iterator_traitsISQ_E15difference_typeEb', symObjAddr: 0xAEBC, symBinAddr: 0x100089838, symSize: 0x1474 }
  - { offset: 0x1BA912, size: 0x8, addend: 0x0, symName: '__ZNSt3__127__insertion_sort_incompleteIRZN6fuzzer6Merger5MergeERKNS_3setIjNS_4lessIjEENS_9allocatorIjEEEEPS8_SA_SB_PNS_6vectorINS_12basic_stringIcNS_11char_traitsIcEENS6_IcEEEENS6_ISH_EEEEE3$_0PNS1_13MergeFileInfoEEEbT0_SP_T_', symObjAddr: 0xC604, symBinAddr: 0x10008AF80, symSize: 0x354 }
  - { offset: 0x1CADAC, size: 0x8, addend: 0x0, symName: __ZNSt3__113__tree_removeB7v160000IPNS_16__tree_node_baseIPvEEEEvT_S5_, symObjAddr: 0xE43C, symBinAddr: 0x10008CB48, symSize: 0x3C8 }
  - { offset: 0x1CDA0C, size: 0x8, addend: 0x0, symName: '__ZNSt3__17__sort3B7v160000INS_17_ClassicAlgPolicyERZN6fuzzer6Merger5MergeERKNS_3setIjNS_4lessIjEENS_9allocatorIjEEEEPS9_SB_SC_PNS_6vectorINS_12basic_stringIcNS_11char_traitsIcEENS7_IcEEEENS7_ISI_EEEEE3$_0PNS2_13MergeFileInfoEEEjT1_SQ_SQ_T0_', symObjAddr: 0xC46C, symBinAddr: 0x10008ADE8, symSize: 0x198 }
  - { offset: 0x1CDE50, size: 0x8, addend: 0x0, symName: __ZNSt3__14swapB7v160000IN6fuzzer13MergeFileInfoEEENS_9enable_ifIXaasr21is_move_constructibleIT_EE5valuesr18is_move_assignableIS4_EE5valueEvE4typeERS4_S7_, symObjAddr: 0xC958, symBinAddr: 0x10008B2D4, symSize: 0x160 }
  - { offset: 0x1CE74F, size: 0x8, addend: 0x0, symName: '__ZNSt3__17__sort4B7v160000INS_17_ClassicAlgPolicyERZN6fuzzer6Merger5MergeERKNS_3setIjNS_4lessIjEENS_9allocatorIjEEEEPS9_SB_SC_PNS_6vectorINS_12basic_stringIcNS_11char_traitsIcEENS7_IcEEEENS7_ISI_EEEEE3$_0PNS2_13MergeFileInfoEEEjT1_SQ_SQ_SQ_T0_', symObjAddr: 0xCAB8, symBinAddr: 0x10008B434, symSize: 0xF0 }
  - { offset: 0x1CEA3E, size: 0x8, addend: 0x0, symName: '__ZNSt3__124__sort5_maybe_branchlessB7v160000INS_17_ClassicAlgPolicyERZN6fuzzer6Merger5MergeERKNS_3setIjNS_4lessIjEENS_9allocatorIjEEEEPS9_SB_SC_PNS_6vectorINS_12basic_stringIcNS_11char_traitsIcEENS7_IcEEEENS7_ISI_EEEEE3$_0PNS2_13MergeFileInfoEEENS_9enable_ifIXntsr21__use_branchless_sortIT0_T1_EE5valueEvE4typeESS_SS_SS_SS_SS_SR_', symObjAddr: 0xC330, symBinAddr: 0x10008ACAC, symSize: 0x13C }
  - { offset: 0x1D1803, size: 0x8, addend: 0x0, symName: '__ZN6fuzzer18ForEachNonZeroByteIZNKS_7TracePC15CollectFeaturesIZNS_6Fuzzer31CrashResistantMergeInternalStepERKNSt3__112basic_stringIcNS4_11char_traitsIcEENS4_9allocatorIcEEEEbE3$_1EEmT_EUlmmhE_EEmPKhSH_mSE_', symObjAddr: 0xCE98, symBinAddr: 0x10008B5A4, symSize: 0x570 }
  - { offset: 0x1D1F18, size: 0x8, addend: 0x0, symName: '__ZN6fuzzer18ForEachNonZeroByteIZNKS_7TracePC15CollectFeaturesIZNS_6Fuzzer31CrashResistantMergeInternalStepERKNSt3__112basic_stringIcNS4_11char_traitsIcEENS4_9allocatorIcEEEEbE3$_2EEmT_EUlmmhE_EEmPKhSH_mSE_', symObjAddr: 0xD554, symBinAddr: 0x10008BC60, symSize: 0xBD4 }
  - { offset: 0x1D2FD3, size: 0x8, addend: 0x0, symName: __ZN6fuzzer19CrashResistantMergeERKNSt3__16vectorINS0_12basic_stringIcNS0_11char_traitsIcEENS0_9allocatorIcEEEENS5_IS7_EEEERKNS1_INS_9SizedFileENS5_ISC_EEEESG_PS9_RKNS0_3setIjNS0_4lessIjEENS5_IjEEEEPSM_SO_SP_RKS7_bb, symObjAddr: 0x5A10, symBinAddr: 0x100087D70, symSize: 0x12CC }
  - { offset: 0x1DB15E, size: 0x8, addend: 0x0, symName: __ZNSt3__16vectorIN6fuzzer13MergeFileInfoENS_9allocatorIS2_EEE26__swap_out_circular_bufferERNS_14__split_bufferIS2_RS4_EEPS2_, symObjAddr: 0xEC34, symBinAddr: 0x10008D340, symSize: 0x164 }
  - { offset: 0x1DDA0D, size: 0x8, addend: 0x0, symName: __ZN6fuzzer6Merger5ParseERKNSt3__112basic_stringIcNS1_11char_traitsIcEENS1_9allocatorIcEEEEb, symObjAddr: 0x0, symBinAddr: 0x100082730, symSize: 0x128 }
  - { offset: 0x1DDE88, size: 0x8, addend: 0x0, symName: __ZN6fuzzer6Merger5ParseERNSt3__113basic_istreamIcNS1_11char_traitsIcEEEEb, symObjAddr: 0x128, symBinAddr: 0x100082858, symSize: 0xC6C }
  - { offset: 0x1E13A2, size: 0x8, addend: 0x0, symName: __ZNSt3__16vectorIN6fuzzer13MergeFileInfoENS_9allocatorIS2_EEE8__appendEm, symObjAddr: 0xA5C4, symBinAddr: 0x1000895FC, symSize: 0x23C }
  - { offset: 0x1E2574, size: 0x8, addend: 0x0, symName: __ZN6fuzzer6Merger11ParseOrExitERNSt3__113basic_istreamIcNS1_11char_traitsIcEEEEb, symObjAddr: 0xE20, symBinAddr: 0x1000834C4, symSize: 0x2C }
  - { offset: 0x1E279A, size: 0x8, addend: 0x0, symName: __ZNK6fuzzer6Merger28ApproximateMemoryConsumptionEv, symObjAddr: 0x1130, symBinAddr: 0x1000834F0, symSize: 0xE8 }
  - { offset: 0x1E27ED, size: 0x8, addend: 0x0, symName: __ZNK6fuzzer6Merger28ApproximateMemoryConsumptionEv, symObjAddr: 0x1130, symBinAddr: 0x1000834F0, symSize: 0xE8 }
  - { offset: 0x1E31DF, size: 0x8, addend: 0x0, symName: __ZN6fuzzer6Merger5MergeERKNSt3__13setIjNS1_4lessIjEENS1_9allocatorIjEEEEPS7_S9_SA_PNS1_6vectorINS1_12basic_stringIcNS1_11char_traitsIcEENS5_IcEEEENS5_ISG_EEEE, symObjAddr: 0x1218, symBinAddr: 0x1000835D8, symSize: 0x14B0 }
  - { offset: 0x1E69AF, size: 0x8, addend: 0x0, symName: __ZNK6fuzzer6Merger11AllFeaturesEv, symObjAddr: 0x26C8, symBinAddr: 0x100084A88, symSize: 0x324 }
  - { offset: 0x1E71E0, size: 0x8, addend: 0x0, symName: __ZNK6fuzzer6Merger11AllFeaturesEv, symObjAddr: 0x26C8, symBinAddr: 0x100084A88, symSize: 0x324 }
  - { offset: 0x1E88DF, size: 0x8, addend: 0x0, symName: __ZN6fuzzer6Fuzzer31CrashResistantMergeInternalStepERKNSt3__112basic_stringIcNS1_11char_traitsIcEENS1_9allocatorIcEEEEb, symObjAddr: 0x29EC, symBinAddr: 0x100084DAC, symSize: 0x1018 }
  - { offset: 0x1EC373, size: 0x8, addend: 0x0, symName: '__ZNK6fuzzer7TracePC15CollectFeaturesIZNS_6Fuzzer31CrashResistantMergeInternalStepERKNSt3__112basic_stringIcNS3_11char_traitsIcEENS3_9allocatorIcEEEEbE3$_1EEmT_', symObjAddr: 0x3A04, symBinAddr: 0x100085DC4, symSize: 0x4A8 }
  - { offset: 0x1ECE3A, size: 0x8, addend: 0x0, symName: '__ZNK6fuzzer7TracePC15CollectFeaturesIZNS_6Fuzzer31CrashResistantMergeInternalStepERKNSt3__112basic_stringIcNS3_11char_traitsIcEENS3_9allocatorIcEEEEbE3$_1EEmT_', symObjAddr: 0x3A04, symBinAddr: 0x100085DC4, symSize: 0x4A8 }
  - { offset: 0x1ED845, size: 0x8, addend: 0x0, symName: '__ZNK6fuzzer7TracePC15CollectFeaturesIZNS_6Fuzzer31CrashResistantMergeInternalStepERKNSt3__112basic_stringIcNS3_11char_traitsIcEENS3_9allocatorIcEEEEbE3$_2EEmT_', symObjAddr: 0x3EAC, symBinAddr: 0x10008626C, symSize: 0x65C }
  - { offset: 0x1EE4EF, size: 0x8, addend: 0x0, symName: __ZNSt3__16__treeImNS_4lessImEENS_9allocatorImEEE7destroyEPNS_11__tree_nodeImPvEE, symObjAddr: 0xCE18, symBinAddr: 0x10008B524, symSize: 0x40 }
  - { offset: 0x1EE63A, size: 0x8, addend: 0x0, symName: __ZNSt3__16__treeIPKN6fuzzer7TracePC12PCTableEntryENS_4lessIS5_EENS_9allocatorIS5_EEE7destroyEPNS_11__tree_nodeIS5_PvEE, symObjAddr: 0xCE58, symBinAddr: 0x10008B564, symSize: 0x40 }
  - { offset: 0x1EECDE, size: 0x8, addend: 0x0, symName: '__ZZN6fuzzer6Fuzzer31CrashResistantMergeInternalStepERKNSt3__112basic_stringIcNS1_11char_traitsIcEENS1_9allocatorIcEEEEbENK3$_2clEm', symObjAddr: 0xE128, symBinAddr: 0x10008C834, symSize: 0x148 }
  - { offset: 0x1EF199, size: 0x8, addend: 0x0, symName: __ZNSt3__114basic_ofstreamIcNS_11char_traitsIcEEED1Ev, symObjAddr: 0x4508, symBinAddr: 0x1000868C8, symSize: 0x60 }
  - { offset: 0x1EF7A3, size: 0x8, addend: 0x0, symName: __ZN6fuzzer6Merger13SetCoverMergeERKNSt3__13setIjNS1_4lessIjEENS1_9allocatorIjEEEEPS7_S9_SA_PNS1_6vectorINS1_12basic_stringIcNS1_11char_traitsIcEENS5_IcEEEENS5_ISG_EEEE, symObjAddr: 0x45C8, symBinAddr: 0x100086928, symSize: 0x1448 }
  - { offset: 0x1F360E, size: 0x8, addend: 0x0, symName: __ZNSt3__16vectorIbNS_9allocatorIbEEE18__construct_at_endB7v160000Emb, symObjAddr: 0xE270, symBinAddr: 0x10008C97C, symSize: 0x1CC }
  - { offset: 0x1F455E, size: 0x8, addend: 0x0, symName: __ZNSt3__16vectorIN6fuzzer13MergeFileInfoENS_9allocatorIS2_EEE6assignIPS2_Li0EEEvT_S8_, symObjAddr: 0xE804, symBinAddr: 0x10008CF10, symSize: 0x278 }
  - { offset: 0x1F566A, size: 0x8, addend: 0x0, symName: __ZN6fuzzer13MergeFileInfoC2ERKS0_, symObjAddr: 0xEA7C, symBinAddr: 0x10008D188, symSize: 0x1B8 }
  - { offset: 0x1F5B44, size: 0x8, addend: 0x0, symName: __ZNSt3__113unordered_setINS_12basic_stringIcNS_11char_traitsIcEENS_9allocatorIcEEEENS_4hashIS6_EENS_8equal_toIS6_EENS4_IS6_EEEC2ERKSC_, symObjAddr: 0x97E8, symBinAddr: 0x1000894D4, symSize: 0x128 }
  - { offset: 0x1F6C42, size: 0x8, addend: 0x0, symName: __ZNSt3__16vectorIN6fuzzer13MergeFileInfoENS_9allocatorIS2_EEE6insertINS_11__wrap_iterIPS2_EELi0EEES9_NS7_IPKS2_EET_SD_, symObjAddr: 0x7070, symBinAddr: 0x10008903C, symSize: 0x370 }
  - { offset: 0x1F6C4D, size: 0x8, addend: 0x0, symName: __ZNSt3__16vectorIN6fuzzer13MergeFileInfoENS_9allocatorIS2_EEE6insertINS_11__wrap_iterIPS2_EELi0EEES9_NS7_IPKS2_EET_SD_, symObjAddr: 0x7070, symBinAddr: 0x10008903C, symSize: 0x370 }
  - { offset: 0x1F8EAC, size: 0x8, addend: 0x0, symName: __ZN6fuzzer13MergeFileInfoC2ERKS0_, symObjAddr: 0xEA7C, symBinAddr: 0x10008D188, symSize: 0x1B8 }
  - { offset: 0x1F93D2, size: 0x8, addend: 0x0, symName: __ZNSt3__16vectorIN6fuzzer13MergeFileInfoENS_9allocatorIS2_EEE26__swap_out_circular_bufferERNS_14__split_bufferIS2_RS4_EEPS2_, symObjAddr: 0xEC34, symBinAddr: 0x10008D340, symSize: 0x164 }
  - { offset: 0x1F93E7, size: 0x8, addend: 0x0, symName: __ZNKSt3__120__move_backward_loopINS_17_ClassicAlgPolicyEEclB7v160000IPN6fuzzer13MergeFileInfoES6_S6_EENS_4pairIT_T1_EES8_T0_S9_, symObjAddr: 0xED98, symBinAddr: 0x10008D4A4, symSize: 0x118 }
  - { offset: 0x1F9BC5, size: 0x8, addend: 0x0, symName: __ZTv0_n24_NSt3__114basic_ofstreamIcNS_11char_traitsIcEEED1Ev, symObjAddr: 0x79CC, symBinAddr: 0x1000893AC, symSize: 0x60 }
  - { offset: 0x1F9C57, size: 0x8, addend: 0x0, symName: __ZNSt3__114basic_ofstreamIcNS_11char_traitsIcEEED0Ev, symObjAddr: 0x7A2C, symBinAddr: 0x10008940C, symSize: 0x60 }
  - { offset: 0x1F9D08, size: 0x8, addend: 0x0, symName: __ZTv0_n24_NSt3__114basic_ofstreamIcNS_11char_traitsIcEEED0Ev, symObjAddr: 0x7A8C, symBinAddr: 0x10008946C, symSize: 0x68 }
  - { offset: 0x1FB011, size: 0x8, addend: 0x0, symName: __ZNSt3__113unordered_setINS_12basic_stringIcNS_11char_traitsIcEENS_9allocatorIcEEEENS_4hashIS6_EENS_8equal_toIS6_EENS4_IS6_EEEC2ERKSC_, symObjAddr: 0x97E8, symBinAddr: 0x1000894D4, symSize: 0x128 }
  - { offset: 0x1FCB06, size: 0x8, addend: 0x0, symName: '__ZZNK6fuzzer7TracePC15CollectFeaturesIZNS_6Fuzzer31CrashResistantMergeInternalStepERKNSt3__112basic_stringIcNS3_11char_traitsIcEENS3_9allocatorIcEEEEbE3$_1EEmT_ENKUlmmhE_clEmmh', symObjAddr: 0xD408, symBinAddr: 0x10008BB14, symSize: 0x14C }
  - { offset: 0x1FCF48, size: 0x8, addend: 0x0, symName: __ZN6fuzzer18MutationDispatcherC2ERNS_6RandomERKNS_14FuzzingOptionsE, symObjAddr: 0x0, symBinAddr: 0x10008D5BC, symSize: 0x6F8 }
  - { offset: 0x1FCF62, size: 0x8, addend: 0x0, symName: __ZN6fuzzer10Dictionary12kMaxDictSizeE, symObjAddr: 0x4B30, symBinAddr: 0x100098280, symSize: 0x0 }
  - { offset: 0x1FDCBF, size: 0x8, addend: 0x0, symName: __ZN6fuzzer19ChangeBinaryIntegerIhEEmPhmRNS_6RandomE, symObjAddr: 0x351C, symBinAddr: 0x100090AD8, symSize: 0x1FC }
  - { offset: 0x1FE1FD, size: 0x8, addend: 0x0, symName: __ZN6fuzzer19ChangeBinaryIntegerItEEmPhmRNS_6RandomE, symObjAddr: 0x32EC, symBinAddr: 0x1000908A8, symSize: 0x230 }
  - { offset: 0x1FE75A, size: 0x8, addend: 0x0, symName: __ZN6fuzzer19ChangeBinaryIntegerIjEEmPhmRNS_6RandomE, symObjAddr: 0x30C8, symBinAddr: 0x100090684, symSize: 0x224 }
  - { offset: 0x1FECB7, size: 0x8, addend: 0x0, symName: __ZN6fuzzer19ChangeBinaryIntegerIyEEmPhmRNS_6RandomE, symObjAddr: 0x2EA0, symBinAddr: 0x10009045C, symSize: 0x228 }
  - { offset: 0x20A145, size: 0x8, addend: 0x0, symName: __ZNSt3__16vectorIN6fuzzer18MutationDispatcher7MutatorENS_9allocatorIS3_EEE6assignIPS3_Li0EEEvT_S9_, symObjAddr: 0x4320, symBinAddr: 0x1000918D0, symSize: 0x1AC }
  - { offset: 0x20D252, size: 0x8, addend: 0x0, symName: __ZN6fuzzer18MutationDispatcherC2ERNS_6RandomERKNS_14FuzzingOptionsE, symObjAddr: 0x0, symBinAddr: 0x10008D5BC, symSize: 0x6F8 }
  - { offset: 0x20E82D, size: 0x8, addend: 0x0, symName: __ZN6fuzzer18MutationDispatcher17Mutate_EraseBytesEPhmm, symObjAddr: 0x6F8, symBinAddr: 0x10008DCB4, symSize: 0xE4 }
  - { offset: 0x20E838, size: 0x8, addend: 0x0, symName: __ZNSt3__16vectorIN6fuzzer18MutationDispatcher7MutatorENS_9allocatorIS3_EEE6insertIPKS3_Li0EEENS_11__wrap_iterIPS3_EENSA_IS9_EET_SE_, symObjAddr: 0x4088, symBinAddr: 0x100091644, symSize: 0x28C }
  - { offset: 0x20F4EF, size: 0x8, addend: 0x0, symName: __ZNSt3__16vectorIN6fuzzer18MutationDispatcher7MutatorENS_9allocatorIS3_EEE6assignIPS3_Li0EEEvT_S9_, symObjAddr: 0x4320, symBinAddr: 0x1000918D0, symSize: 0x1AC }
  - { offset: 0x20FC79, size: 0x8, addend: 0x0, symName: __ZNSt3__16vectorIhNS_9allocatorIhEEE8__appendEm, symObjAddr: 0x44CC, symBinAddr: 0x100091A7C, symSize: 0x27C }
  - { offset: 0x20FD80, size: 0x8, addend: 0x0, symName: __ZN6fuzzer18MutationDispatcher17Mutate_EraseBytesEPhmm, symObjAddr: 0x6F8, symBinAddr: 0x10008DCB4, symSize: 0xE4 }
  - { offset: 0x20FFF7, size: 0x8, addend: 0x0, symName: __ZN6fuzzer18MutationDispatcher17Mutate_InsertByteEPhmm, symObjAddr: 0x7DC, symBinAddr: 0x10008DD98, symSize: 0x12C }
  - { offset: 0x21027E, size: 0x8, addend: 0x0, symName: __ZN6fuzzer18MutationDispatcher26Mutate_InsertRepeatedBytesEPhmm, symObjAddr: 0x908, symBinAddr: 0x10008DEC4, symSize: 0x248 }
  - { offset: 0x2105D3, size: 0x8, addend: 0x0, symName: __ZN6fuzzer18MutationDispatcher17Mutate_ChangeByteEPhmm, symObjAddr: 0xB50, symBinAddr: 0x10008E10C, symSize: 0x108 }
  - { offset: 0x21081F, size: 0x8, addend: 0x0, symName: __ZN6fuzzer18MutationDispatcher16Mutate_ChangeBitEPhmm, symObjAddr: 0xC58, symBinAddr: 0x10008E214, symSize: 0xC0 }
  - { offset: 0x210B5A, size: 0x8, addend: 0x0, symName: __ZN6fuzzer18MutationDispatcher19Mutate_ShuffleBytesEPhmm, symObjAddr: 0xD18, symBinAddr: 0x10008E2D4, symSize: 0x14C }
  - { offset: 0x21108D, size: 0x8, addend: 0x0, symName: __ZN6fuzzer18MutationDispatcher25Mutate_ChangeASCIIIntegerEPhmm, symObjAddr: 0xE64, symBinAddr: 0x10008E420, symSize: 0x240 }
  - { offset: 0x21148E, size: 0x8, addend: 0x0, symName: __ZN6fuzzer18MutationDispatcher26Mutate_ChangeBinaryIntegerEPhmm, symObjAddr: 0x10A4, symBinAddr: 0x10008E660, symSize: 0xC4 }
  - { offset: 0x211674, size: 0x8, addend: 0x0, symName: __ZN6fuzzer18MutationDispatcher15Mutate_CopyPartEPhmm, symObjAddr: 0x1168, symBinAddr: 0x10008E724, symSize: 0x174 }
  - { offset: 0x211A8E, size: 0x8, addend: 0x0, symName: __ZN6fuzzer18MutationDispatcher12InsertPartOfEPKhmPhmm, symObjAddr: 0x2CB0, symBinAddr: 0x10009026C, symSize: 0x1F0 }
  - { offset: 0x212041, size: 0x8, addend: 0x0, symName: __ZN6fuzzer18MutationDispatcher16Mutate_CrossOverEPhmm, symObjAddr: 0x12DC, symBinAddr: 0x10008E898, symSize: 0x2A4 }
  - { offset: 0x21264D, size: 0x8, addend: 0x0, symName: __ZNSt3__16vectorIhNS_9allocatorIhEEE8__appendEm, symObjAddr: 0x44CC, symBinAddr: 0x100091A7C, symSize: 0x27C }
  - { offset: 0x212BD7, size: 0x8, addend: 0x0, symName: __ZN6fuzzer18MutationDispatcher10CopyPartOfEPKhmPhm, symObjAddr: 0x2B80, symBinAddr: 0x10009013C, symSize: 0x130 }
  - { offset: 0x212EF7, size: 0x8, addend: 0x0, symName: __ZN6fuzzer18MutationDispatcher34Mutate_AddWordFromManualDictionaryEPhmm, symObjAddr: 0x1580, symBinAddr: 0x10008EB3C, symSize: 0x14 }
  - { offset: 0x212F7D, size: 0x8, addend: 0x0, symName: __ZN6fuzzer18MutationDispatcher21AddWordFromDictionaryERNS_10DictionaryEPhmm, symObjAddr: 0x1D34, symBinAddr: 0x10008F2F0, symSize: 0x26C }
  - { offset: 0x213637, size: 0x8, addend: 0x0, symName: __ZN6fuzzer18MutationDispatcher20ApplyDictionaryEntryEPhmmRNS_15DictionaryEntryE, symObjAddr: 0x1FA0, symBinAddr: 0x10008F55C, symSize: 0x220 }
  - { offset: 0x213642, size: 0x8, addend: 0x0, symName: __ZN6fuzzer18MutationDispatcher42Mutate_AddWordFromPersistentAutoDictionaryEPhmm, symObjAddr: 0x1594, symBinAddr: 0x10008EB50, symSize: 0x18 }
  - { offset: 0x213C2A, size: 0x8, addend: 0x0, symName: __ZN6fuzzer18MutationDispatcher22Mutate_AddWordFromTORCEPhmm, symObjAddr: 0x15AC, symBinAddr: 0x10008EB68, symSize: 0x54C }
  - { offset: 0x2149F2, size: 0x8, addend: 0x0, symName: __ZN6fuzzer18MutationDispatcher13Mutate_CustomEPhmm, symObjAddr: 0x1AF8, symBinAddr: 0x10008F0B4, symSize: 0xC4 }
  - { offset: 0x2149FD, size: 0x8, addend: 0x0, symName: __ZN6fuzzer18MutationDispatcher26MakeDictionaryEntryFromCMPIyEENS_15DictionaryEntryET_S3_PKhm, symObjAddr: 0x275C, symBinAddr: 0x10008FD18, symSize: 0x154 }
  - { offset: 0x214E7F, size: 0x8, addend: 0x0, symName: __ZN6fuzzer18MutationDispatcher26MakeDictionaryEntryFromCMPIjEENS_15DictionaryEntryET_S3_PKhm, symObjAddr: 0x2A04, symBinAddr: 0x10008FFC0, symSize: 0x17C }
  - { offset: 0x2152F5, size: 0x8, addend: 0x0, symName: __ZN6fuzzer18MutationDispatcher26MakeDictionaryEntryFromCMPEPKvS2_S2_S2_mPKhm, symObjAddr: 0x21C0, symBinAddr: 0x10008F77C, symSize: 0x580 }
  - { offset: 0x21593A, size: 0x8, addend: 0x0, symName: __ZN6fuzzer18MutationDispatcher20ApplyDictionaryEntryEPhmmRNS_15DictionaryEntryE, symObjAddr: 0x1FA0, symBinAddr: 0x10008F55C, symSize: 0x220 }
  - { offset: 0x215E10, size: 0x8, addend: 0x0, symName: __ZN6fuzzer18MutationDispatcher26MakeDictionaryEntryFromCMPItEENS_15DictionaryEntryET_S3_PKhm, symObjAddr: 0x28B0, symBinAddr: 0x10008FE6C, symSize: 0x154 }
  - { offset: 0x2162A0, size: 0x8, addend: 0x0, symName: __ZN6fuzzer18MutationDispatcher13Mutate_CustomEPhmm, symObjAddr: 0x1AF8, symBinAddr: 0x10008F0B4, symSize: 0xC4 }
  - { offset: 0x2163E7, size: 0x8, addend: 0x0, symName: __ZN6fuzzer18MutationDispatcher22Mutate_CustomCrossOverEPhmm, symObjAddr: 0x1BBC, symBinAddr: 0x10008F178, symSize: 0x174 }
  - { offset: 0x21678B, size: 0x8, addend: 0x0, symName: __ZN6fuzzer18MutationDispatcherC1ERNS_6RandomERKNS_14FuzzingOptionsE, symObjAddr: 0x1D30, symBinAddr: 0x10008F2EC, symSize: 0x4 }
  - { offset: 0x2167D5, size: 0x8, addend: 0x0, symName: __ZN6fuzzer18MutationDispatcherC1ERNS_6RandomERKNS_14FuzzingOptionsE, symObjAddr: 0x1D30, symBinAddr: 0x10008F2EC, symSize: 0x4 }
  - { offset: 0x216912, size: 0x8, addend: 0x0, symName: __ZN6fuzzer18MutationDispatcher26MakeDictionaryEntryFromCMPERKNS_9FixedWordILm64EEES4_PKhm, symObjAddr: 0x2740, symBinAddr: 0x10008FCFC, symSize: 0x1C }
  - { offset: 0x216ADE, size: 0x8, addend: 0x0, symName: __ZN6fuzzer18MutationDispatcher21StartMutationSequenceEv, symObjAddr: 0x3718, symBinAddr: 0x100090CD4, symSize: 0x24 }
  - { offset: 0x216D37, size: 0x8, addend: 0x0, symName: __ZN6fuzzer18MutationDispatcher32RecordSuccessfulMutationSequenceEv, symObjAddr: 0x373C, symBinAddr: 0x100090CF8, symSize: 0x138 }
  - { offset: 0x217383, size: 0x8, addend: 0x0, symName: __ZN6fuzzer18MutationDispatcher26PrintRecommendedDictionaryEv, symObjAddr: 0x3874, symBinAddr: 0x100090E30, symSize: 0x288 }
  - { offset: 0x217B85, size: 0x8, addend: 0x0, symName: __ZN6fuzzer18MutationDispatcher21PrintMutationSequenceEb, symObjAddr: 0x3AFC, symBinAddr: 0x1000910B8, symSize: 0x138 }
  - { offset: 0x217BF0, size: 0x8, addend: 0x0, symName: __ZN6fuzzer18MutationDispatcher21PrintMutationSequenceEb, symObjAddr: 0x3AFC, symBinAddr: 0x1000910B8, symSize: 0x138 }
  - { offset: 0x217E4C, size: 0x8, addend: 0x0, symName: __ZN6fuzzer18MutationDispatcher16MutationSequenceEv, symObjAddr: 0x3C34, symBinAddr: 0x1000911F0, symSize: 0x6C }
  - { offset: 0x217FBC, size: 0x8, addend: 0x0, symName: __ZN6fuzzer18MutationDispatcher6MutateEPhmm, symObjAddr: 0x3CA0, symBinAddr: 0x10009125C, symSize: 0xC }
  - { offset: 0x218024, size: 0x8, addend: 0x0, symName: __ZN6fuzzer18MutationDispatcher10MutateImplEPhmmRNSt3__16vectorINS0_7MutatorENS2_9allocatorIS4_EEEE, symObjAddr: 0x3CAC, symBinAddr: 0x100091268, symSize: 0x238 }
  - { offset: 0x218764, size: 0x8, addend: 0x0, symName: __ZN6fuzzer18MutationDispatcher13DefaultMutateEPhmm, symObjAddr: 0x3EE4, symBinAddr: 0x1000914A0, symSize: 0xC }
  - { offset: 0x2188B9, size: 0x8, addend: 0x0, symName: __ZN6fuzzer18MutationDispatcher13DefaultMutateEPhmm, symObjAddr: 0x3EE4, symBinAddr: 0x1000914A0, symSize: 0xC }
  - { offset: 0x2189C7, size: 0x8, addend: 0x0, symName: __ZN6fuzzer18MutationDispatcher14MutateWithMaskEPhmmRKNSt3__16vectorIhNS2_9allocatorIhEEEE, symObjAddr: 0x3EF0, symBinAddr: 0x1000914AC, symSize: 0x124 }
  - { offset: 0x218C3C, size: 0x8, addend: 0x0, symName: __ZN6fuzzer18MutationDispatcher25AddWordToManualDictionaryERKNS_9FixedWordILm64EEE, symObjAddr: 0x4014, symBinAddr: 0x1000915D0, symSize: 0x74 }
  - { offset: 0x219667, size: 0x8, addend: 0x0, symName: __ZN6fuzzer11ComputeSHA1EPKhmPh, symObjAddr: 0x0, symBinAddr: 0x100091CF8, symSize: 0x15C }
  - { offset: 0x219688, size: 0x8, addend: 0x0, symName: __ZN6fuzzer11ComputeSHA1EPKhmPh, symObjAddr: 0x0, symBinAddr: 0x100091CF8, symSize: 0x15C }
  - { offset: 0x2198BF, size: 0x8, addend: 0x0, symName: __ZN6fuzzer12Sha1ToStringEPKh, symObjAddr: 0x15C, symBinAddr: 0x100091E54, symSize: 0x1E4 }
  - { offset: 0x219D4A, size: 0x8, addend: 0x0, symName: __ZN6fuzzer4HashERKNSt3__16vectorIhNS0_9allocatorIhEEEE, symObjAddr: 0x3D4, symBinAddr: 0x100092038, symSize: 0x44 }
  - { offset: 0x220B41, size: 0x8, addend: 0x0, symName: __ZN12_GLOBAL__N_117sha1_addUncountedEPNS_7sha1nfoEj, symObjAddr: 0x418, symBinAddr: 0x10009207C, symSize: 0x178 }
  - { offset: 0x22179B, size: 0x8, addend: 0x0, symName: ___sancov_lowest_stack, symObjAddr: 0x33B0, symBinAddr: 0x1000ADCB8, symSize: 0x0 }
  - { offset: 0x2217C0, size: 0x8, addend: 0x0, symName: __ZN6fuzzer3TPCE, symObjAddr: 0x5E800, symBinAddr: 0x1000AE000, symSize: 0x0 }
  - { offset: 0x222113, size: 0x8, addend: 0x0, symName: __ZN6fuzzer34WarnAboutDeprecatedInstrumentationEPKc, symObjAddr: 0x1E38, symBinAddr: 0x10009402C, symSize: 0x20 }
  - { offset: 0x22215A, size: 0x8, addend: 0x0, symName: ___sanitizer_cov_trace_pc_guard, symObjAddr: 0x1E58, symBinAddr: 0x10009404C, symSize: 0x28 }
  - { offset: 0x227B52, size: 0x8, addend: 0x0, symName: __ZNSt3__1L19piecewise_constructE, symObjAddr: 0x3938, symBinAddr: 0x1000982C8, symSize: 0x0 }
  - { offset: 0x229E2C, size: 0x8, addend: 0x0, symName: __ZNSt3__112__hash_tableINS_17__hash_value_typeImmEENS_22__unordered_map_hasherImS2_NS_4hashImEENS_8equal_toImEELb1EEENS_21__unordered_map_equalImS2_S7_S5_Lb1EEENS_9allocatorIS2_EEE11__do_rehashILb1EEEvm, symObjAddr: 0x317C, symBinAddr: 0x100095324, symSize: 0x1D8 }
  - { offset: 0x22C6FE, size: 0x8, addend: 0x0, symName: __ZN6fuzzer7TracePCD1Ev, symObjAddr: 0x0, symBinAddr: 0x1000921F4, symSize: 0x68 }
  - { offset: 0x22CBEA, size: 0x8, addend: 0x0, symName: __ZN6fuzzer7TracePC18GetTotalPCCoverageEv, symObjAddr: 0x68, symBinAddr: 0x10009225C, symSize: 0x10 }
  - { offset: 0x22CC7C, size: 0x8, addend: 0x0, symName: __ZN6fuzzer7TracePC28HandleInline8bitCountersInitEPhS1_, symObjAddr: 0x78, symBinAddr: 0x10009226C, symSize: 0x17C }
  - { offset: 0x22CE22, size: 0x8, addend: 0x0, symName: __ZN6fuzzer7TracePC13HandlePCsInitEPKmS2_, symObjAddr: 0x1F4, symBinAddr: 0x1000923E8, symSize: 0x54 }
  - { offset: 0x22CE5F, size: 0x8, addend: 0x0, symName: __ZN6fuzzer7TracePC15PrintModuleInfoEv, symObjAddr: 0x248, symBinAddr: 0x10009243C, symSize: 0x1A8 }
  - { offset: 0x22D030, size: 0x8, addend: 0x0, symName: '__ZNK6fuzzer7TracePC15CollectFeaturesIZNS0_15PrintModuleInfoEvE3$_0EEmT_', symObjAddr: 0x3F0, symBinAddr: 0x1000925E4, symSize: 0xF0 }
  - { offset: 0x22D042, size: 0x8, addend: 0x0, symName: '__ZNK6fuzzer7TracePC15CollectFeaturesIZNS0_15PrintModuleInfoEvE3$_0EEmT_', symObjAddr: 0x3F0, symBinAddr: 0x1000925E4, symSize: 0xF0 }
  - { offset: 0x22D2A5, size: 0x8, addend: 0x0, symName: __ZN6fuzzer7TracePC18HandleCallerCalleeEmm, symObjAddr: 0x4E0, symBinAddr: 0x1000926D4, symSize: 0x4C }
  - { offset: 0x22D32F, size: 0x8, addend: 0x0, symName: __ZN6fuzzer7TracePC20GetNextInstructionPcEm, symObjAddr: 0x52C, symBinAddr: 0x100092720, symSize: 0x8 }
  - { offset: 0x22D370, size: 0x8, addend: 0x0, symName: __ZN6fuzzer7TracePC17UpdateObservedPCsEv, symObjAddr: 0x534, symBinAddr: 0x100092728, symSize: 0x668 }
  - { offset: 0x22E077, size: 0x8, addend: 0x0, symName: __ZN6fuzzer7TracePC15PCTableEntryIdxEPKNS0_12PCTableEntryE, symObjAddr: 0xB9C, symBinAddr: 0x100092D90, symSize: 0x58 }
  - { offset: 0x22E821, size: 0x8, addend: 0x0, symName: __ZNSt3__112__hash_tableINS_17__hash_value_typeImmEENS_22__unordered_map_hasherImS2_NS_4hashImEENS_8equal_toImEELb1EEENS_21__unordered_map_equalImS2_S7_S5_Lb1EEENS_9allocatorIS2_EEE25__emplace_unique_key_argsImJRKNS_21piecewise_construct_tENS_5tupleIJRKmEEENSI_IJEEEEEENS_4pairINS_15__hash_iteratorIPNS_11__hash_nodeIS2_PvEEEEbEERKT_DpOT0_, symObjAddr: 0x2E58, symBinAddr: 0x10009500C, symSize: 0x318 }
  - { offset: 0x22EE2E, size: 0x8, addend: 0x0, symName: __ZN6fuzzer7TracePC15PCTableEntryIdxEPKNS0_12PCTableEntryE, symObjAddr: 0xB9C, symBinAddr: 0x100092D90, symSize: 0x58 }
  - { offset: 0x22EEA1, size: 0x8, addend: 0x0, symName: __ZN6fuzzer7TracePC17PCTableEntryByIdxEm, symObjAddr: 0xBF4, symBinAddr: 0x100092DE8, symSize: 0x4C }
  - { offset: 0x22F1F5, size: 0x8, addend: 0x0, symName: __ZN6fuzzer7TracePC16SetFocusFunctionERKNSt3__112basic_stringIcNS1_11char_traitsIcEENS1_9allocatorIcEEEE, symObjAddr: 0xC40, symBinAddr: 0x100092E34, symSize: 0x308 }
  - { offset: 0x22FBAA, size: 0x8, addend: 0x0, symName: __ZN6fuzzer7TracePC21ObservedFocusFunctionEv, symObjAddr: 0xF48, symBinAddr: 0x10009313C, symSize: 0x28 }
  - { offset: 0x22FBF1, size: 0x8, addend: 0x0, symName: __ZN6fuzzer7TracePC21ObservedFocusFunctionEv, symObjAddr: 0xF48, symBinAddr: 0x10009313C, symSize: 0x28 }
  - { offset: 0x22FC1B, size: 0x8, addend: 0x0, symName: __ZN6fuzzer7TracePC13PrintCoverageEb, symObjAddr: 0xF70, symBinAddr: 0x100093164, symSize: 0xA7C }
  - { offset: 0x232170, size: 0x8, addend: 0x0, symName: __ZN6fuzzer7TracePC17AddValueForMemcmpEPvPKvS3_mb, symObjAddr: 0x19EC, symBinAddr: 0x100093BE0, symSize: 0x310 }
  - { offset: 0x232704, size: 0x8, addend: 0x0, symName: __ZN6fuzzer7TracePC17AddValueForMemcmpEPvPKvS3_mb, symObjAddr: 0x19EC, symBinAddr: 0x100093BE0, symSize: 0x310 }
  - { offset: 0x232A4C, size: 0x8, addend: 0x0, symName: __ZN6fuzzer7TracePC19ClearInlineCountersEv, symObjAddr: 0x1CFC, symBinAddr: 0x100093EF0, symSize: 0xCC }
  - { offset: 0x232BC1, size: 0x8, addend: 0x0, symName: __ZN6fuzzer7TracePC18RecordInitialStackEv, symObjAddr: 0x1DC8, symBinAddr: 0x100093FBC, symSize: 0x3C }
  - { offset: 0x232C04, size: 0x8, addend: 0x0, symName: __ZNK6fuzzer7TracePC17GetMaxStackOffsetEv, symObjAddr: 0x1E04, symBinAddr: 0x100093FF8, symSize: 0x34 }
  - { offset: 0x232C33, size: 0x8, addend: 0x0, symName: ___sanitizer_cov_trace_pc_guard, symObjAddr: 0x1E58, symBinAddr: 0x10009404C, symSize: 0x28 }
  - { offset: 0x232C9C, size: 0x8, addend: 0x0, symName: ___sanitizer_cov_trace_pc, symObjAddr: 0x1E80, symBinAddr: 0x100094074, symSize: 0x28 }
  - { offset: 0x232CAE, size: 0x8, addend: 0x0, symName: ___sanitizer_cov_trace_pc, symObjAddr: 0x1E80, symBinAddr: 0x100094074, symSize: 0x28 }
  - { offset: 0x232D06, size: 0x8, addend: 0x0, symName: ___sanitizer_cov_trace_pc_guard_init, symObjAddr: 0x1EA8, symBinAddr: 0x10009409C, symSize: 0x28 }
  - { offset: 0x232D18, size: 0x8, addend: 0x0, symName: ___sanitizer_cov_trace_pc_guard_init, symObjAddr: 0x1EA8, symBinAddr: 0x10009409C, symSize: 0x28 }
  - { offset: 0x232D92, size: 0x8, addend: 0x0, symName: ___sanitizer_cov_8bit_counters_init, symObjAddr: 0x1ED0, symBinAddr: 0x1000940C4, symSize: 0x14 }
  - { offset: 0x232DA4, size: 0x8, addend: 0x0, symName: ___sanitizer_cov_8bit_counters_init, symObjAddr: 0x1ED0, symBinAddr: 0x1000940C4, symSize: 0x14 }
  - { offset: 0x232E45, size: 0x8, addend: 0x0, symName: ___sanitizer_cov_pcs_init, symObjAddr: 0x1EE4, symBinAddr: 0x1000940D8, symSize: 0x68 }
  - { offset: 0x232E7E, size: 0x8, addend: 0x0, symName: ___sanitizer_cov_pcs_init, symObjAddr: 0x1EE4, symBinAddr: 0x1000940D8, symSize: 0x68 }
  - { offset: 0x232F06, size: 0x8, addend: 0x0, symName: ___sanitizer_cov_trace_pc_indir, symObjAddr: 0x1F4C, symBinAddr: 0x100094140, symSize: 0x60 }
  - { offset: 0x23307F, size: 0x8, addend: 0x0, symName: ___sanitizer_cov_trace_cmp8, symObjAddr: 0x1FAC, symBinAddr: 0x1000941A0, symSize: 0x90 }
  - { offset: 0x2331DB, size: 0x8, addend: 0x0, symName: ___sanitizer_cov_trace_const_cmp8, symObjAddr: 0x203C, symBinAddr: 0x100094230, symSize: 0x90 }
  - { offset: 0x2333E4, size: 0x8, addend: 0x0, symName: ___sanitizer_cov_trace_cmp4, symObjAddr: 0x20CC, symBinAddr: 0x1000942C0, symSize: 0x8C }
  - { offset: 0x23353E, size: 0x8, addend: 0x0, symName: ___sanitizer_cov_trace_const_cmp4, symObjAddr: 0x2158, symBinAddr: 0x10009434C, symSize: 0x8C }
  - { offset: 0x233706, size: 0x8, addend: 0x0, symName: ___sanitizer_cov_trace_cmp2, symObjAddr: 0x21E4, symBinAddr: 0x1000943D8, symSize: 0x78 }
  - { offset: 0x23383E, size: 0x8, addend: 0x0, symName: ___sanitizer_cov_trace_const_cmp2, symObjAddr: 0x225C, symBinAddr: 0x100094450, symSize: 0x78 }
  - { offset: 0x2339E4, size: 0x8, addend: 0x0, symName: ___sanitizer_cov_trace_cmp1, symObjAddr: 0x22D4, symBinAddr: 0x1000944C8, symSize: 0x78 }
  - { offset: 0x233B1C, size: 0x8, addend: 0x0, symName: ___sanitizer_cov_trace_const_cmp1, symObjAddr: 0x234C, symBinAddr: 0x100094540, symSize: 0x78 }
  - { offset: 0x233C54, size: 0x8, addend: 0x0, symName: ___sanitizer_cov_trace_switch, symObjAddr: 0x23C4, symBinAddr: 0x1000945B8, symSize: 0x300 }
  - { offset: 0x2341A5, size: 0x8, addend: 0x0, symName: ___sanitizer_cov_trace_div4, symObjAddr: 0x26C4, symBinAddr: 0x1000948B8, symSize: 0x8C }
  - { offset: 0x2342E6, size: 0x8, addend: 0x0, symName: ___sanitizer_cov_trace_div8, symObjAddr: 0x2750, symBinAddr: 0x100094944, symSize: 0x8C }
  - { offset: 0x2344A4, size: 0x8, addend: 0x0, symName: ___sanitizer_cov_trace_gep, symObjAddr: 0x27DC, symBinAddr: 0x1000949D0, symSize: 0x8C }
  - { offset: 0x2345F4, size: 0x8, addend: 0x0, symName: ___sanitizer_weak_hook_memcmp, symObjAddr: 0x2868, symBinAddr: 0x100094A5C, symSize: 0x44 }
  - { offset: 0x234676, size: 0x8, addend: 0x0, symName: ___sanitizer_weak_hook_strncmp, symObjAddr: 0x28AC, symBinAddr: 0x100094AA0, symSize: 0xA8 }
  - { offset: 0x234746, size: 0x8, addend: 0x0, symName: ___sanitizer_weak_hook_strcmp, symObjAddr: 0x2954, symBinAddr: 0x100094B48, symSize: 0x74 }
  - { offset: 0x234839, size: 0x8, addend: 0x0, symName: ___sanitizer_weak_hook_strncasecmp, symObjAddr: 0x29C8, symBinAddr: 0x100094BBC, symSize: 0xA8 }
  - { offset: 0x234994, size: 0x8, addend: 0x0, symName: ___sanitizer_weak_hook_strcasecmp, symObjAddr: 0x2A70, symBinAddr: 0x100094C64, symSize: 0x74 }
  - { offset: 0x234A8E, size: 0x8, addend: 0x0, symName: ___sanitizer_weak_hook_strstr, symObjAddr: 0x2AE4, symBinAddr: 0x100094CD8, symSize: 0x90 }
  - { offset: 0x234B9C, size: 0x8, addend: 0x0, symName: ___sanitizer_weak_hook_strcasestr, symObjAddr: 0x2B74, symBinAddr: 0x100094D68, symSize: 0x90 }
  - { offset: 0x234CAA, size: 0x8, addend: 0x0, symName: ___sanitizer_weak_hook_memmem, symObjAddr: 0x2C04, symBinAddr: 0x100094DF8, symSize: 0x88 }
  - { offset: 0x23529F, size: 0x8, addend: 0x0, symName: __ZN6fuzzer7TracePCC2Ev, symObjAddr: 0x2C8C, symBinAddr: 0x100094E80, symSize: 0x18C }
  - { offset: 0x235BDB, size: 0x8, addend: 0x0, symName: __ZNSt3__112__hash_tableINS_17__hash_value_typeImmEENS_22__unordered_map_hasherImS2_NS_4hashImEENS_8equal_toImEELb1EEENS_21__unordered_map_equalImS2_S7_S5_Lb1EEENS_9allocatorIS2_EEE11__do_rehashILb1EEEvm, symObjAddr: 0x317C, symBinAddr: 0x100095324, symSize: 0x1D8 }
  - { offset: 0x236080, size: 0x8, addend: 0x0, symName: __ZTW21__sancov_lowest_stack, symObjAddr: 0x3354, symBinAddr: 0x1000954FC, symSize: 0x20 }
  - { offset: 0x236186, size: 0x8, addend: 0x0, symName: __ZN6fuzzer6Base64ERKNSt3__16vectorIhNS0_9allocatorIhEEEE, symObjAddr: 0x10F4, symBinAddr: 0x100096494, symSize: 0x238 }
  - { offset: 0x236685, size: 0x8, addend: 0x0, symName: __ZN6fuzzerL14SymbolizeMutexE, symObjAddr: 0x21A0, symBinAddr: 0x1000AC150, symSize: 0x0 }
  - { offset: 0x23669B, size: 0x8, addend: 0x0, symName: __ZN6fuzzer13PrintHexArrayEPKhmPKc, symObjAddr: 0x0, symBinAddr: 0x100095558, symSize: 0x68 }
  - { offset: 0x236760, size: 0x8, addend: 0x0, symName: __ZN6fuzzer5PrintERKNSt3__16vectorIhNS0_9allocatorIhEEEEPKc, symObjAddr: 0x68, symBinAddr: 0x1000955C0, symSize: 0x68 }
  - { offset: 0x23683E, size: 0x8, addend: 0x0, symName: __ZN6fuzzer14PrintASCIIByteEh, symObjAddr: 0xD0, symBinAddr: 0x100095628, symSize: 0x88 }
  - { offset: 0x2368AF, size: 0x8, addend: 0x0, symName: __ZN6fuzzer10PrintASCIIEPKhmPKc, symObjAddr: 0x158, symBinAddr: 0x1000956B0, symSize: 0xD0 }
  - { offset: 0x236970, size: 0x8, addend: 0x0, symName: __ZN6fuzzer10PrintASCIIERKNSt3__16vectorIhNS0_9allocatorIhEEEEPKc, symObjAddr: 0x228, symBinAddr: 0x100095780, symSize: 0xD0 }
  - { offset: 0x236A5E, size: 0x8, addend: 0x0, symName: __ZN6fuzzer7ToASCIIEPhm, symObjAddr: 0x2F8, symBinAddr: 0x100095850, symSize: 0x54 }
  - { offset: 0x236B66, size: 0x8, addend: 0x0, symName: __ZN6fuzzer7IsASCIIERKNSt3__16vectorIhNS0_9allocatorIhEEEE, symObjAddr: 0x34C, symBinAddr: 0x1000958A4, symSize: 0xD4 }
  - { offset: 0x236CC6, size: 0x8, addend: 0x0, symName: __ZN6fuzzer7IsASCIIEPKhm, symObjAddr: 0x420, symBinAddr: 0x100095978, symSize: 0xD4 }
  - { offset: 0x236DBE, size: 0x8, addend: 0x0, symName: __ZN6fuzzer23ParseOneDictionaryEntryERKNSt3__112basic_stringIcNS0_11char_traitsIcEENS0_9allocatorIcEEEEPNS0_6vectorIhNS4_IhEEEE, symObjAddr: 0x4F4, symBinAddr: 0x100095A4C, symSize: 0x618 }
  - { offset: 0x237FF6, size: 0x8, addend: 0x0, symName: __ZN6fuzzer19ParseDictionaryFileERKNSt3__112basic_stringIcNS0_11char_traitsIcEENS0_9allocatorIcEEEEPNS0_6vectorINS9_IhNS4_IhEEEENS4_ISB_EEEE, symObjAddr: 0xB0C, symBinAddr: 0x100096064, symSize: 0x430 }
  - { offset: 0x238001, size: 0x8, addend: 0x0, symName: __ZN6fuzzer19ParseDictionaryFileERKNSt3__112basic_stringIcNS0_11char_traitsIcEENS0_9allocatorIcEEEEPNS0_6vectorINS9_IhNS4_IhEEEENS4_ISB_EEEE, symObjAddr: 0xB0C, symBinAddr: 0x100096064, symSize: 0x430 }
  - { offset: 0x238F27, size: 0x8, addend: 0x0, symName: __ZN6fuzzer10DescribePCEPKcm, symObjAddr: 0x132C, symBinAddr: 0x1000966CC, symSize: 0x184 }
  - { offset: 0x23974D, size: 0x8, addend: 0x0, symName: __ZN6fuzzer7PrintPCEPKcS1_m, symObjAddr: 0x14B0, symBinAddr: 0x100096850, symSize: 0xA0 }
  - { offset: 0x239758, size: 0x8, addend: 0x0, symName: __ZN6fuzzer7PrintPCEPKcS1_m, symObjAddr: 0x14B0, symBinAddr: 0x100096850, symSize: 0xA0 }
  - { offset: 0x239980, size: 0x8, addend: 0x0, symName: __ZN6fuzzer15PrintStackTraceEv, symObjAddr: 0x1550, symBinAddr: 0x1000968F0, symSize: 0x50 }
  - { offset: 0x239A22, size: 0x8, addend: 0x0, symName: __ZN6fuzzer18PrintMemoryProfileEv, symObjAddr: 0x15A0, symBinAddr: 0x100096940, symSize: 0x58 }
  - { offset: 0x239AD2, size: 0x8, addend: 0x0, symName: __ZN6fuzzer16NumberOfCpuCoresEv, symObjAddr: 0x15F8, symBinAddr: 0x100096998, symSize: 0x30 }
  - { offset: 0x239B0F, size: 0x8, addend: 0x0, symName: __ZN6fuzzer14SimpleFastHashEPKvmy, symObjAddr: 0x1628, symBinAddr: 0x1000969C8, symSize: 0x20 }
  - { offset: 0x239B7B, size: 0x8, addend: 0x0, symName: __ZN6fuzzer14SimpleFastHashEPKvmy, symObjAddr: 0x1628, symBinAddr: 0x1000969C8, symSize: 0x20 }
  - { offset: 0x244796, size: 0x8, addend: 0x0, symName: __ZN6fuzzerL11SignalMutexE, symObjAddr: 0x13D8, symBinAddr: 0x1000AC190, symSize: 0x0 }
  - { offset: 0x2447A4, size: 0x8, addend: 0x0, symName: __ZN6fuzzer14ExecuteCommandERKNS_7CommandE, symObjAddr: 0x0, symBinAddr: 0x100096A04, symSize: 0x3AC }
  - { offset: 0x2447CE, size: 0x8, addend: 0x0, symName: __MergedGlobals, symObjAddr: 0x2D270, symBinAddr: 0x1000E1C78, symSize: 0x0 }
  - { offset: 0x244ED2, size: 0x8, addend: 0x0, symName: __MergedGlobals, symObjAddr: 0x2D270, symBinAddr: 0x1000E1C78, symSize: 0x0 }
  - { offset: 0x244EEC, size: 0x8, addend: 0x0, symName: __MergedGlobals, symObjAddr: 0x2D270, symBinAddr: 0x1000E1C78, symSize: 0x0 }
  - { offset: 0x244F08, size: 0x8, addend: 0x0, symName: __MergedGlobals, symObjAddr: 0x2D270, symBinAddr: 0x1000E1C78, symSize: 0x0 }
  - { offset: 0x244F24, size: 0x8, addend: 0x0, symName: __MergedGlobals, symObjAddr: 0x2D270, symBinAddr: 0x1000E1C78, symSize: 0x0 }
  - { offset: 0x2451BB, size: 0x8, addend: 0x0, symName: __ZN6fuzzer13DiscardOutputEi, symObjAddr: 0x664, symBinAddr: 0x100096DB0, symSize: 0x54 }
  - { offset: 0x24E5E3, size: 0x8, addend: 0x0, symName: __ZN6fuzzer14ExecuteCommandERKNS_7CommandEPNSt3__112basic_stringIcNS3_11char_traitsIcEENS3_9allocatorIcEEEE, symObjAddr: 0x0, symBinAddr: 0x100096E20, symSize: 0xC4 }
  - { offset: 0x24E618, size: 0x8, addend: 0x0, symName: __ZN6fuzzerL21upstream_segv_handlerE, symObjAddr: 0x2D2F0, symBinAddr: 0x1000E1CB0, symSize: 0x0 }
  - { offset: 0x24E62E, size: 0x8, addend: 0x0, symName: __ZN6fuzzer14ExecuteCommandERKNS_7CommandEPNSt3__112basic_stringIcNS3_11char_traitsIcEENS3_9allocatorIcEEEE, symObjAddr: 0x0, symBinAddr: 0x100096E20, symSize: 0xC4 }
  - { offset: 0x24EB35, size: 0x8, addend: 0x0, symName: __ZN6fuzzer8SetTimerEi, symObjAddr: 0x37C, symBinAddr: 0x100096EE4, symSize: 0x70 }
  - { offset: 0x24EBB3, size: 0x8, addend: 0x0, symName: __ZN6fuzzerL12SetSigactionEiPFviP9__siginfoPvE, symObjAddr: 0x3EC, symBinAddr: 0x100096F54, symSize: 0xB0 }
  - { offset: 0x24EBC5, size: 0x8, addend: 0x0, symName: __ZN6fuzzerL12SetSigactionEiPFviP9__siginfoPvE, symObjAddr: 0x3EC, symBinAddr: 0x100096F54, symSize: 0xB0 }
  - { offset: 0x24EC84, size: 0x8, addend: 0x0, symName: __ZN6fuzzerL12AlarmHandlerEiP9__siginfoPv, symObjAddr: 0x49C, symBinAddr: 0x100097004, symSize: 0x4 }
  - { offset: 0x24ECAA, size: 0x8, addend: 0x0, symName: __ZN6fuzzerL12AlarmHandlerEiP9__siginfoPv, symObjAddr: 0x49C, symBinAddr: 0x100097004, symSize: 0x4 }
  - { offset: 0x24ED03, size: 0x8, addend: 0x0, symName: __ZN6fuzzer16SetSignalHandlerERKNS_14FuzzingOptionsE, symObjAddr: 0x4A0, symBinAddr: 0x100097008, symSize: 0x184 }
  - { offset: 0x24EE77, size: 0x8, addend: 0x0, symName: __ZN6fuzzerL16InterruptHandlerEiP9__siginfoPv, symObjAddr: 0x624, symBinAddr: 0x10009718C, symSize: 0x4 }
  - { offset: 0x24EE89, size: 0x8, addend: 0x0, symName: __ZN6fuzzerL16InterruptHandlerEiP9__siginfoPv, symObjAddr: 0x624, symBinAddr: 0x10009718C, symSize: 0x4 }
  - { offset: 0x24EEBC, size: 0x8, addend: 0x0, symName: __ZN6fuzzerL11SegvHandlerEiP9__siginfoPv, symObjAddr: 0x628, symBinAddr: 0x100097190, symSize: 0x14 }
  - { offset: 0x24EF0D, size: 0x8, addend: 0x0, symName: __ZN6fuzzerL12CrashHandlerEiP9__siginfoPv, symObjAddr: 0x63C, symBinAddr: 0x1000971A4, symSize: 0x4 }
  - { offset: 0x24EF40, size: 0x8, addend: 0x0, symName: __ZN6fuzzerL21FileSizeExceedHandlerEiP9__siginfoPv, symObjAddr: 0x640, symBinAddr: 0x1000971A8, symSize: 0x4 }
  - { offset: 0x24EF73, size: 0x8, addend: 0x0, symName: __ZN6fuzzerL19GracefulExitHandlerEiP9__siginfoPv, symObjAddr: 0x644, symBinAddr: 0x1000971AC, symSize: 0x4 }
  - { offset: 0x24EFA6, size: 0x8, addend: 0x0, symName: __ZN6fuzzer12SleepSecondsEi, symObjAddr: 0x648, symBinAddr: 0x1000971B0, symSize: 0x4 }
  - { offset: 0x24EFD2, size: 0x8, addend: 0x0, symName: __ZN6fuzzer12SleepSecondsEi, symObjAddr: 0x648, symBinAddr: 0x1000971B0, symSize: 0x4 }
  - { offset: 0x24EFE6, size: 0x8, addend: 0x0, symName: __ZN6fuzzer6GetPidEv, symObjAddr: 0x64C, symBinAddr: 0x1000971B4, symSize: 0x18 }
  - { offset: 0x24F013, size: 0x8, addend: 0x0, symName: __ZN6fuzzer12GetPeakRSSMbEv, symObjAddr: 0x664, symBinAddr: 0x1000971CC, symSize: 0x34 }
  - { offset: 0x24F05D, size: 0x8, addend: 0x0, symName: __ZN6fuzzer15OpenProcessPipeEPKcS1_, symObjAddr: 0x698, symBinAddr: 0x100097200, symSize: 0x4 }
  - { offset: 0x24F09B, size: 0x8, addend: 0x0, symName: __ZN6fuzzer15OpenProcessPipeEPKcS1_, symObjAddr: 0x698, symBinAddr: 0x100097200, symSize: 0x4 }
  - { offset: 0x24F0B7, size: 0x8, addend: 0x0, symName: __ZN6fuzzer16CloseProcessPipeEP7__sFILE, symObjAddr: 0x69C, symBinAddr: 0x100097204, symSize: 0x4 }
  - { offset: 0x24F0E7, size: 0x8, addend: 0x0, symName: __ZN6fuzzer16CloseProcessPipeEP7__sFILE, symObjAddr: 0x69C, symBinAddr: 0x100097204, symSize: 0x4 }
  - { offset: 0x24F0FB, size: 0x8, addend: 0x0, symName: __ZN6fuzzer12SearchMemoryEPKvmS1_m, symObjAddr: 0x6A0, symBinAddr: 0x100097208, symSize: 0x4 }
  - { offset: 0x24F155, size: 0x8, addend: 0x0, symName: __ZN6fuzzer12SearchMemoryEPKvmS1_m, symObjAddr: 0x6A0, symBinAddr: 0x100097208, symSize: 0x4 }
  - { offset: 0x24F181, size: 0x8, addend: 0x0, symName: __ZN6fuzzer14DisassembleCmdERKNSt3__112basic_stringIcNS0_11char_traitsIcEENS0_9allocatorIcEEEE, symObjAddr: 0x6A4, symBinAddr: 0x10009720C, symSize: 0x10 }
  - { offset: 0x24F1CF, size: 0x8, addend: 0x0, symName: __ZN6fuzzer14SearchRegexCmdERKNSt3__112basic_stringIcNS0_11char_traitsIcEENS0_9allocatorIcEEEE, symObjAddr: 0x6B4, symBinAddr: 0x10009721C, symSize: 0x80 }
  - { offset: 0x258AA7, size: 0x8, addend: 0x0, symName: _main, symObjAddr: 0x0, symBinAddr: 0x10009729C, symSize: 0x34 }
  - { offset: 0x25B4FD, size: 0x8, addend: 0x0, symName: _main, symObjAddr: 0x0, symBinAddr: 0x10009729C, symSize: 0x34 }
...
